	.text
	.def	@feat.00;
	.scl	3;
	.type	0;
	.endef
	.globl	@feat.00
.set @feat.00, 0
	.file	"main.cpp"
	.def	main;
	.scl	2;
	.type	32;
	.endef
	.globl	main                            # -- Begin function main
	.p2align	4, 0x90
main:                                   # @main
.Lfunc_begin0:
.seh_proc main
	.seh_handler __CxxFrameHandler3, @unwind, @except
# %bb.0:
	pushq	%rbp
	.seh_pushreg %rbp
	pushq	%rsi
	.seh_pushreg %rsi
	subq	$104, %rsp
	.seh_stackalloc 104
	leaq	96(%rsp), %rbp
	.seh_setframe %rbp, 96
	.seh_endprologue
	movq	$-2, (%rbp)
	movb	$0, -8(%rbp)
	leaq	"??_C@_0BD@IGIIOBPB@?6?$DN?$DN?$DN?5First?5run?5?$DN?$DN?$DN?$AA@"(%rip), %rax
	movq	%rax, -40(%rbp)
	movq	$18, -32(%rbp)
	movl	$1, %ecx
	callq	__acrt_iob_func
	leaq	-40(%rbp), %r8
	movb	$1, %cl
	movq	%rax, %rdx
	callq	"??$_Print_impl@$$V@std@@YAXW4_Add_newline@0@QEAU_iobuf@@U?$basic_format_string@D$$V@0@@Z"
	movq	$0, -40(%rbp)
	leaq	-8(%rbp), %rax
	movq	%rax, -32(%rbp)
	leaq	-16(%rbp), %rax
	movq	%rax, -24(%rbp)
.Ltmp0:
	leaq	-40(%rbp), %rcx
	callq	"?produce@Producer@@QEAAXXZ"
.Ltmp1:
# %bb.1:
	leaq	"??_C@_0BE@NINFMGHJ@?6?$DN?$DN?$DN?5Second?5run?5?$DN?$DN?$DN?$AA@"(%rip), %rax
	movq	%rax, -56(%rbp)
	movq	$19, -48(%rbp)
.Ltmp2:
	movl	$1, %ecx
	callq	__acrt_iob_func
.Ltmp3:
# %bb.2:
.Ltmp4:
	leaq	-56(%rbp), %r8
	movb	$1, %cl
	movq	%rax, %rdx
	callq	"??$_Print_impl@$$V@std@@YAXW4_Add_newline@0@QEAU_iobuf@@U?$basic_format_string@D$$V@0@@Z"
.Ltmp5:
# %bb.3:
	movb	$1, -8(%rbp)
.Ltmp6:
	leaq	-40(%rbp), %rcx
	callq	"?produce@Producer@@QEAAXXZ"
.Ltmp7:
# %bb.4:
	movq	-40(%rbp), %rsi
	testq	%rsi, %rsi
	je	.LBB0_6
# %bb.5:
	movq	%rsi, %rcx
	callq	"??1Data@@QEAA@XZ"
	movq	%rsi, %rcx
	callq	"??3@YAXPEAX@Z"
.LBB0_6:
	xorl	%eax, %eax
	addq	$104, %rsp
	popq	%rsi
	popq	%rbp
	retq
	.seh_handlerdata
	.long	($cppxdata$main)@IMGREL
	.text
	.seh_endproc
	.def	"?dtor$7@?0?main@4HA";
	.scl	3;
	.type	32;
	.endef
	.p2align	4, 0x90
"?dtor$7@?0?main@4HA":
.seh_proc "?dtor$7@?0?main@4HA"
.LBB0_7:
	movq	%rdx, 16(%rsp)
	pushq	%rbp
	.seh_pushreg %rbp
	pushq	%rsi
	.seh_pushreg %rsi
	subq	$40, %rsp
	.seh_stackalloc 40
	leaq	96(%rdx), %rbp
	.seh_endprologue
	leaq	-40(%rbp), %rcx
	callq	"??1Producer@@QEAA@XZ"
	nop
	addq	$40, %rsp
	popq	%rsi
	popq	%rbp
	retq                                    # CLEANUPRET
.Lfunc_end0:
	.seh_handlerdata
	.text
	.seh_endproc
	.section	.xdata,"dr"
	.p2align	2, 0x0
$cppxdata$main:
	.long	429065506                       # MagicNumber
	.long	1                               # MaxState
	.long	($stateUnwindMap$main)@IMGREL   # UnwindMap
	.long	0                               # NumTryBlocks
	.long	0                               # TryBlockMap
	.long	3                               # IPMapEntries
	.long	($ip2state$main)@IMGREL         # IPToStateXData
	.long	96                              # UnwindHelp
	.long	0                               # ESTypeList
	.long	1                               # EHFlags
$stateUnwindMap$main:
	.long	-1                              # ToState
	.long	"?dtor$7@?0?main@4HA"@IMGREL    # Action
$ip2state$main:
	.long	.Lfunc_begin0@IMGREL            # IP
	.long	-1                              # ToState
	.long	.Ltmp0@IMGREL+1                 # IP
	.long	0                               # ToState
	.long	.Ltmp7@IMGREL+1                 # IP
	.long	-1                              # ToState
	.text
                                        # -- End function
	.def	"?produce@Producer@@QEAAXXZ";
	.scl	2;
	.type	32;
	.endef
	.section	.text,"xr",discard,"?produce@Producer@@QEAAXXZ"
	.globl	"?produce@Producer@@QEAAXXZ"    # -- Begin function ?produce@Producer@@QEAAXXZ
	.p2align	4, 0x90
"?produce@Producer@@QEAAXXZ":           # @"?produce@Producer@@QEAAXXZ"
.seh_proc "?produce@Producer@@QEAAXXZ"
# %bb.0:
	pushq	%r15
	.seh_pushreg %r15
	pushq	%r14
	.seh_pushreg %r14
	pushq	%rsi
	.seh_pushreg %rsi
	pushq	%rdi
	.seh_pushreg %rdi
	pushq	%rbx
	.seh_pushreg %rbx
	subq	$96, %rsp
	.seh_stackalloc 96
	.seh_endprologue
	movq	%rcx, %rsi
	leaq	"??_C@_0CC@PCOEPBEH@?$FLPRODUCER?$FN?5producing?5some?5data?4?4@"(%rip), %rax
	movq	%rax, 32(%rsp)
	movq	$33, 40(%rsp)
	movl	$1, %ecx
	callq	__acrt_iob_func
	leaq	32(%rsp), %r8
	movb	$1, %cl
	movq	%rax, %rdx
	callq	"??$_Print_impl@$$V@std@@YAXW4_Add_newline@0@QEAU_iobuf@@U?$basic_format_string@D$$V@0@@Z"
	leaq	"??_C@_0O@KLMCIIGF@Hello?0?5World?$CB?$AA@"(%rip), %rdx
	leaq	32(%rsp), %rcx
	callq	"??$make_unique@UData@@AEAY0O@$$CBD$0A@@std@@YA?AV?$unique_ptr@UData@@U?$default_delete@UData@@@std@@@0@AEAY0O@$$CBD@Z"
	movq	32(%rsp), %rax
	movq	$0, 32(%rsp)
	movq	(%rsi), %rdi
	movq	%rax, (%rsi)
	testq	%rdi, %rdi
	je	.LBB1_3
# %bb.1:
	movq	%rdi, %rcx
	callq	"??1Data@@QEAA@XZ"
	movq	%rdi, %rcx
	callq	"??3@YAXPEAX@Z"
	movq	32(%rsp), %rdi
	testq	%rdi, %rdi
	je	.LBB1_3
# %bb.2:
	movq	%rdi, %rcx
	callq	"??1Data@@QEAA@XZ"
	movq	%rdi, %rcx
	callq	"??3@YAXPEAX@Z"
.LBB1_3:
	leaq	"??_C@_0BP@OMLGDNEJ@?$FLPRODUCER?$FN?5lending?5the?5data?4?4?4?$AA@"(%rip), %rax
	movq	%rax, 32(%rsp)
	movq	$30, 40(%rsp)
	movl	$1, %ecx
	callq	__acrt_iob_func
	leaq	32(%rsp), %rdi
	movb	$1, %cl
	movq	%rax, %rdx
	movq	%rdi, %r8
	callq	"??$_Print_impl@$$V@std@@YAXW4_Add_newline@0@QEAU_iobuf@@U?$basic_format_string@D$$V@0@@Z"
	movq	(%rsi), %r14
	movq	8(%rsi), %rbx
	movq	16(%r14), %r15
	cmpq	$16, 24(%r14)
	jb	.LBB1_5
# %bb.4:
	movq	(%r14), %r14
.LBB1_5:
	leaq	"??_C@_0CE@BFMPBMDH@?$FLBORROWER?$FN?5got?5the?5data?3?5?C?$IC?B?$KL?$HL?$HN?C@"(%rip), %rax
	movq	%rax, 56(%rsp)
	movq	$35, 64(%rsp)
	movl	$1, %ecx
	callq	__acrt_iob_func
	movq	%r14, 40(%rsp)
	movq	%r15, 48(%rsp)
	movabsq	$-4611686018427387904, %rcx     # imm = 0xC000000000000000
	movq	%rcx, 32(%rsp)
	movq	$1, 72(%rsp)
	movq	%rdi, 80(%rsp)
	leaq	56(%rsp), %r8
	leaq	72(%rsp), %rdi
	movb	$1, %cl
	movq	%rax, %rdx
	movq	%rdi, %r9
	callq	"?_Vprint_unicode_impl@std@@YAXW4_Add_newline@1@QEAU_iobuf@@V?$basic_string_view@DU?$char_traits@D@std@@@1@V?$basic_format_args@V?$basic_format_context@V?$back_insert_iterator@V?$_Fmt_buffer@D@std@@@std@@D@std@@@1@@Z"
	cmpb	$0, (%rbx)
	je	.LBB1_8
# %bb.6:
	movq	(%rsi), %rbx
	movq	$0, (%rsi)
	testq	%rbx, %rbx
	je	.LBB1_8
# %bb.7:
	movq	%rbx, %rcx
	callq	"??1Data@@QEAA@XZ"
	movq	%rbx, %rcx
	callq	"??3@YAXPEAX@Z"
.LBB1_8:
	movq	(%rsi), %rbx
	leaq	"??_C@_0DF@IJBPFIBC@?$FLPRODUCER?$FN?5data?5should?5be?5mine?5a@"(%rip), %rax
	movq	%rax, 56(%rsp)
	movq	$52, 64(%rsp)
	movl	$1, %ecx
	callq	__acrt_iob_func
	testq	%rbx, %rbx
	setne	80(%rsp)
	movabsq	$5764607523034234880, %rbx      # imm = 0x5000000000000000
	movq	%rbx, 72(%rsp)
	movq	$1, 32(%rsp)
	movq	%rdi, 40(%rsp)
	leaq	56(%rsp), %r8
	leaq	32(%rsp), %r9
	movb	$1, %cl
	movq	%rax, %rdx
	callq	"?_Vprint_unicode_impl@std@@YAXW4_Add_newline@1@QEAU_iobuf@@V?$basic_string_view@DU?$char_traits@D@std@@@1@V?$basic_format_args@V?$basic_format_context@V?$back_insert_iterator@V?$_Fmt_buffer@D@std@@@std@@D@std@@@1@@Z"
	movq	(%rsi), %rax
	testq	%rax, %rax
	je	.LBB1_9
# %bb.10:
	movq	16(%rsi), %rcx
	movq	$0, (%rsi)
	movq	%rax, 88(%rsp)
	leaq	88(%rsp), %rdx
	callq	"?consume@Consumer@@QEAAXV?$unique_ptr@UData@@U?$default_delete@UData@@@std@@@std@@@Z"
	jmp	.LBB1_11
.LBB1_9:
	leaq	"??_C@_0FM@MGOMPOIP@?$FLPRODUCER?$FN?5what?5a?5dishonest?5borr@"(%rip), %rax
	movq	%rax, 32(%rsp)
	movq	$91, 40(%rsp)
	movl	$1, %ecx
	callq	__acrt_iob_func
	leaq	32(%rsp), %r8
	movb	$1, %cl
	movq	%rax, %rdx
	callq	"??$_Print_impl@$$V@std@@YAXW4_Add_newline@0@QEAU_iobuf@@U?$basic_format_string@D$$V@0@@Z"
.LBB1_11:
	movq	(%rsi), %rsi
	leaq	"??_C@_0DI@IDNLCFLH@?$FLPRODUCER?$FN?5m_data?5should?5be?5null@"(%rip), %rax
	movq	%rax, 56(%rsp)
	movq	$55, 64(%rsp)
	movl	$1, %ecx
	callq	__acrt_iob_func
	testq	%rsi, %rsi
	sete	80(%rsp)
	movq	%rbx, 72(%rsp)
	movq	$1, 32(%rsp)
	movq	%rdi, 40(%rsp)
	leaq	56(%rsp), %r8
	leaq	32(%rsp), %r9
	movb	$1, %cl
	movq	%rax, %rdx
	callq	"?_Vprint_unicode_impl@std@@YAXW4_Add_newline@1@QEAU_iobuf@@V?$basic_string_view@DU?$char_traits@D@std@@@1@V?$basic_format_args@V?$basic_format_context@V?$back_insert_iterator@V?$_Fmt_buffer@D@std@@@std@@D@std@@@1@@Z"
	nop
	addq	$96, %rsp
	popq	%rbx
	popq	%rdi
	popq	%rsi
	popq	%r14
	popq	%r15
	retq
	.seh_endproc
                                        # -- End function
	.def	"??1Producer@@QEAA@XZ";
	.scl	2;
	.type	32;
	.endef
	.section	.text,"xr",discard,"??1Producer@@QEAA@XZ"
	.globl	"??1Producer@@QEAA@XZ"          # -- Begin function ??1Producer@@QEAA@XZ
	.p2align	4, 0x90
"??1Producer@@QEAA@XZ":                 # @"??1Producer@@QEAA@XZ"
.seh_proc "??1Producer@@QEAA@XZ"
# %bb.0:
	pushq	%rsi
	.seh_pushreg %rsi
	subq	$32, %rsp
	.seh_stackalloc 32
	.seh_endprologue
	movq	(%rcx), %rsi
	testq	%rsi, %rsi
	je	.LBB2_1
# %bb.2:
	movq	%rsi, %rcx
	callq	"??1Data@@QEAA@XZ"
	movq	%rsi, %rcx
	addq	$32, %rsp
	popq	%rsi
	jmp	"??3@YAXPEAX@Z"                 # TAILCALL
.LBB2_1:
	nop
	addq	$32, %rsp
	popq	%rsi
	retq
	.seh_endproc
                                        # -- End function
	.def	"??__E?id@?$numpunct@D@std@@2V0locale@2@A@@YAXXZ";
	.scl	2;
	.type	32;
	.endef
	.section	.text,"xr",discard,"??__E?id@?$numpunct@D@std@@2V0locale@2@A@@YAXXZ"
	.globl	"??__E?id@?$numpunct@D@std@@2V0locale@2@A@@YAXXZ" # -- Begin function ??__E?id@?$numpunct@D@std@@2V0locale@2@A@@YAXXZ
	.p2align	4, 0x90
"??__E?id@?$numpunct@D@std@@2V0locale@2@A@@YAXXZ": # @"??__E?id@?$numpunct@D@std@@2V0locale@2@A@@YAXXZ"
# %bb.0:
	movq	$0, "?id@?$numpunct@D@std@@2V0locale@2@A"(%rip)
	retq
                                        # -- End function
	.def	"??$make_unique@UData@@AEAY0O@$$CBD$0A@@std@@YA?AV?$unique_ptr@UData@@U?$default_delete@UData@@@std@@@0@AEAY0O@$$CBD@Z";
	.scl	2;
	.type	32;
	.endef
	.section	.text,"xr",discard,"??$make_unique@UData@@AEAY0O@$$CBD$0A@@std@@YA?AV?$unique_ptr@UData@@U?$default_delete@UData@@@std@@@0@AEAY0O@$$CBD@Z"
	.globl	"??$make_unique@UData@@AEAY0O@$$CBD$0A@@std@@YA?AV?$unique_ptr@UData@@U?$default_delete@UData@@@std@@@0@AEAY0O@$$CBD@Z" # -- Begin function ??$make_unique@UData@@AEAY0O@$$CBD$0A@@std@@YA?AV?$unique_ptr@UData@@U?$default_delete@UData@@@std@@@0@AEAY0O@$$CBD@Z
	.p2align	4, 0x90
"??$make_unique@UData@@AEAY0O@$$CBD$0A@@std@@YA?AV?$unique_ptr@UData@@U?$default_delete@UData@@@std@@@0@AEAY0O@$$CBD@Z": # @"??$make_unique@UData@@AEAY0O@$$CBD$0A@@std@@YA?AV?$unique_ptr@UData@@U?$default_delete@UData@@@std@@@0@AEAY0O@$$CBD@Z"
.Lfunc_begin1:
.seh_proc "??$make_unique@UData@@AEAY0O@$$CBD$0A@@std@@YA?AV?$unique_ptr@UData@@U?$default_delete@UData@@@std@@@0@AEAY0O@$$CBD@Z"
	.seh_handler __CxxFrameHandler3, @unwind, @except
# %bb.0:
	pushq	%rbp
	.seh_pushreg %rbp
	pushq	%r15
	.seh_pushreg %r15
	pushq	%r14
	.seh_pushreg %r14
	pushq	%rsi
	.seh_pushreg %rsi
	pushq	%rdi
	.seh_pushreg %rdi
	pushq	%rbx
	.seh_pushreg %rbx
	subq	$88, %rsp
	.seh_stackalloc 88
	leaq	80(%rsp), %rbp
	.seh_setframe %rbp, 80
	.seh_endprologue
	movq	$-2, (%rbp)
	movq	%rdx, %rdi
	movq	%rcx, %rsi
	movl	$32, %ecx
	callq	"??2@YAPEAX_K@Z"
	movq	%rax, %r14
	xorps	%xmm0, %xmm0
	movaps	%xmm0, -32(%rbp)
	movaps	%xmm0, -48(%rbp)
	movq	%rdi, %rcx
	callq	strlen
	testq	%rax, %rax
	movq	%r14, -8(%rbp)                  # 8-byte Spill
	js	.LBB4_1
# %bb.3:
	movq	%rax, %rbx
	cmpq	$15, %rax
	ja	.LBB4_5
# %bb.4:
	movq	%rbx, -32(%rbp)
	movq	$15, -24(%rbp)
	leaq	-48(%rbp), %rcx
	movq	%rdi, %rdx
	movq	%rbx, %r8
	callq	memcpy
	addq	%rbp, %rbx
	addq	$-48, %rbx
	jmp	.LBB4_11
.LBB4_5:
	movq	%rbx, %rax
	orq	$15, %rax
	cmpq	$23, %rax
	movl	$22, %r15d
	cmovaeq	%rax, %r15
	cmpq	$4095, %r15                     # imm = 0xFFF
	jb	.LBB4_8
# %bb.6:
	leaq	40(%r15), %rcx
.Ltmp10:
	callq	"??2@YAPEAX_K@Z"
.Ltmp11:
# %bb.7:
	movq	%rax, %r14
	addq	$39, %r14
	andq	$-32, %r14
	movq	%rax, -8(%r14)
	jmp	.LBB4_10
.LBB4_8:
	leaq	1(%r15), %rcx
.Ltmp8:
	callq	"??2@YAPEAX_K@Z"
.Ltmp9:
# %bb.9:
	movq	%rax, %r14
.LBB4_10:
	movq	%r14, -48(%rbp)
	movq	%rbx, -32(%rbp)
	movq	%r15, -24(%rbp)
	movq	%r14, %rcx
	movq	%rdi, %rdx
	movq	%rbx, %r8
	callq	memcpy
	addq	%r14, %rbx
	movq	-8(%rbp), %r14                  # 8-byte Reload
.LBB4_11:
	movb	$0, (%rbx)
.Ltmp12:
	leaq	-48(%rbp), %rdx
	movq	%r14, %rcx
	callq	"??0Data@@QEAA@AEBV?$basic_string@DU?$char_traits@D@std@@V?$allocator@D@2@@std@@@Z"
.Ltmp13:
# %bb.12:
	movq	-8(%rbp), %rax                  # 8-byte Reload
	movq	%rax, (%rsi)
	movq	-24(%rbp), %rax
	cmpq	$16, %rax
	jb	.LBB4_20
# %bb.13:
	movq	-48(%rbp), %rcx
	leaq	1(%rax), %rdx
	cmpq	$4096, %rdx                     # imm = 0x1000
	jb	.LBB4_19
# %bb.14:
	movq	-8(%rcx), %r8
	addq	$-8, %rcx
	subq	%r8, %rcx
	cmpq	$32, %rcx
	jae	.LBB4_15
# %bb.18:
	addq	$40, %rax
	movq	%rax, %rdx
	movq	%r8, %rcx
.LBB4_19:
	callq	"??3@YAXPEAX_K@Z"
.LBB4_20:
	movq	%rsi, %rax
	addq	$88, %rsp
	popq	%rbx
	popq	%rdi
	popq	%rsi
	popq	%r14
	popq	%r15
	popq	%rbp
	retq
.LBB4_1:
.Ltmp16:
	callq	"?_Xlen_string@std@@YAXXZ"
.Ltmp17:
# %bb.2:
.LBB4_15:
.Ltmp14:
	callq	_invalid_parameter_noinfo_noreturn
.Ltmp15:
# %bb.16:
	int3
	.seh_handlerdata
	.long	("$cppxdata$??$make_unique@UData@@AEAY0O@$$CBD$0A@@std@@YA?AV?$unique_ptr@UData@@U?$default_delete@UData@@@std@@@0@AEAY0O@$$CBD@Z")@IMGREL
	.section	.text,"xr",discard,"??$make_unique@UData@@AEAY0O@$$CBD$0A@@std@@YA?AV?$unique_ptr@UData@@U?$default_delete@UData@@@std@@@0@AEAY0O@$$CBD@Z"
	.seh_endproc
	.def	"?dtor$17@?0???$make_unique@UData@@AEAY0O@$$CBD$0A@@std@@YA?AV?$unique_ptr@UData@@U?$default_delete@UData@@@std@@@0@AEAY0O@$$CBD@Z@4HA";
	.scl	3;
	.type	32;
	.endef
	.p2align	4, 0x90
"?dtor$17@?0???$make_unique@UData@@AEAY0O@$$CBD$0A@@std@@YA?AV?$unique_ptr@UData@@U?$default_delete@UData@@@std@@@0@AEAY0O@$$CBD@Z@4HA":
.seh_proc "?dtor$17@?0???$make_unique@UData@@AEAY0O@$$CBD$0A@@std@@YA?AV?$unique_ptr@UData@@U?$default_delete@UData@@@std@@@0@AEAY0O@$$CBD@Z@4HA"
.LBB4_17:
	movq	%rdx, 16(%rsp)
	pushq	%rbp
	.seh_pushreg %rbp
	pushq	%r15
	.seh_pushreg %r15
	pushq	%r14
	.seh_pushreg %r14
	pushq	%rsi
	.seh_pushreg %rsi
	pushq	%rdi
	.seh_pushreg %rdi
	pushq	%rbx
	.seh_pushreg %rbx
	subq	$40, %rsp
	.seh_stackalloc 40
	leaq	80(%rdx), %rbp
	.seh_endprologue
	callq	__std_terminate
	int3
	.seh_handlerdata
	.section	.text,"xr",discard,"??$make_unique@UData@@AEAY0O@$$CBD$0A@@std@@YA?AV?$unique_ptr@UData@@U?$default_delete@UData@@@std@@@0@AEAY0O@$$CBD@Z"
	.seh_endproc
	.def	"?dtor$21@?0???$make_unique@UData@@AEAY0O@$$CBD$0A@@std@@YA?AV?$unique_ptr@UData@@U?$default_delete@UData@@@std@@@0@AEAY0O@$$CBD@Z@4HA";
	.scl	3;
	.type	32;
	.endef
	.p2align	4, 0x90
"?dtor$21@?0???$make_unique@UData@@AEAY0O@$$CBD$0A@@std@@YA?AV?$unique_ptr@UData@@U?$default_delete@UData@@@std@@@0@AEAY0O@$$CBD@Z@4HA":
.seh_proc "?dtor$21@?0???$make_unique@UData@@AEAY0O@$$CBD$0A@@std@@YA?AV?$unique_ptr@UData@@U?$default_delete@UData@@@std@@@0@AEAY0O@$$CBD@Z@4HA"
.LBB4_21:
	movq	%rdx, 16(%rsp)
	pushq	%rbp
	.seh_pushreg %rbp
	pushq	%r15
	.seh_pushreg %r15
	pushq	%r14
	.seh_pushreg %r14
	pushq	%rsi
	.seh_pushreg %rsi
	pushq	%rdi
	.seh_pushreg %rdi
	pushq	%rbx
	.seh_pushreg %rbx
	subq	$40, %rsp
	.seh_stackalloc 40
	leaq	80(%rdx), %rbp
	.seh_endprologue
	leaq	-48(%rbp), %rcx
	callq	"??1?$basic_string@DU?$char_traits@D@std@@V?$allocator@D@2@@std@@QEAA@XZ"
	nop
	addq	$40, %rsp
	popq	%rbx
	popq	%rdi
	popq	%rsi
	popq	%r14
	popq	%r15
	popq	%rbp
	retq                                    # CLEANUPRET
	.seh_handlerdata
	.section	.text,"xr",discard,"??$make_unique@UData@@AEAY0O@$$CBD$0A@@std@@YA?AV?$unique_ptr@UData@@U?$default_delete@UData@@@std@@@0@AEAY0O@$$CBD@Z"
	.seh_endproc
	.def	"?dtor$22@?0???$make_unique@UData@@AEAY0O@$$CBD$0A@@std@@YA?AV?$unique_ptr@UData@@U?$default_delete@UData@@@std@@@0@AEAY0O@$$CBD@Z@4HA";
	.scl	3;
	.type	32;
	.endef
	.p2align	4, 0x90
"?dtor$22@?0???$make_unique@UData@@AEAY0O@$$CBD$0A@@std@@YA?AV?$unique_ptr@UData@@U?$default_delete@UData@@@std@@@0@AEAY0O@$$CBD@Z@4HA":
.seh_proc "?dtor$22@?0???$make_unique@UData@@AEAY0O@$$CBD$0A@@std@@YA?AV?$unique_ptr@UData@@U?$default_delete@UData@@@std@@@0@AEAY0O@$$CBD@Z@4HA"
.LBB4_22:
	movq	%rdx, 16(%rsp)
	pushq	%rbp
	.seh_pushreg %rbp
	pushq	%r15
	.seh_pushreg %r15
	pushq	%r14
	.seh_pushreg %r14
	pushq	%rsi
	.seh_pushreg %rsi
	pushq	%rdi
	.seh_pushreg %rdi
	pushq	%rbx
	.seh_pushreg %rbx
	subq	$40, %rsp
	.seh_stackalloc 40
	leaq	80(%rdx), %rbp
	.seh_endprologue
	movq	-8(%rbp), %rcx                  # 8-byte Reload
	callq	"??3@YAXPEAX@Z"
	nop
	addq	$40, %rsp
	popq	%rbx
	popq	%rdi
	popq	%rsi
	popq	%r14
	popq	%r15
	popq	%rbp
	retq                                    # CLEANUPRET
.Lfunc_end1:
	.seh_handlerdata
	.section	.text,"xr",discard,"??$make_unique@UData@@AEAY0O@$$CBD$0A@@std@@YA?AV?$unique_ptr@UData@@U?$default_delete@UData@@@std@@@0@AEAY0O@$$CBD@Z"
	.seh_endproc
	.section	.xdata,"dr",associative,"??$make_unique@UData@@AEAY0O@$$CBD$0A@@std@@YA?AV?$unique_ptr@UData@@U?$default_delete@UData@@@std@@@0@AEAY0O@$$CBD@Z"
	.p2align	2, 0x0
"$cppxdata$??$make_unique@UData@@AEAY0O@$$CBD$0A@@std@@YA?AV?$unique_ptr@UData@@U?$default_delete@UData@@@std@@@0@AEAY0O@$$CBD@Z":
	.long	429065506                       # MagicNumber
	.long	3                               # MaxState
	.long	("$stateUnwindMap$??$make_unique@UData@@AEAY0O@$$CBD$0A@@std@@YA?AV?$unique_ptr@UData@@U?$default_delete@UData@@@std@@@0@AEAY0O@$$CBD@Z")@IMGREL # UnwindMap
	.long	0                               # NumTryBlocks
	.long	0                               # TryBlockMap
	.long	7                               # IPMapEntries
	.long	("$ip2state$??$make_unique@UData@@AEAY0O@$$CBD$0A@@std@@YA?AV?$unique_ptr@UData@@U?$default_delete@UData@@@std@@@0@AEAY0O@$$CBD@Z")@IMGREL # IPToStateXData
	.long	80                              # UnwindHelp
	.long	0                               # ESTypeList
	.long	1                               # EHFlags
"$stateUnwindMap$??$make_unique@UData@@AEAY0O@$$CBD$0A@@std@@YA?AV?$unique_ptr@UData@@U?$default_delete@UData@@@std@@@0@AEAY0O@$$CBD@Z":
	.long	-1                              # ToState
	.long	"?dtor$17@?0???$make_unique@UData@@AEAY0O@$$CBD$0A@@std@@YA?AV?$unique_ptr@UData@@U?$default_delete@UData@@@std@@@0@AEAY0O@$$CBD@Z@4HA"@IMGREL # Action
	.long	-1                              # ToState
	.long	"?dtor$22@?0???$make_unique@UData@@AEAY0O@$$CBD$0A@@std@@YA?AV?$unique_ptr@UData@@U?$default_delete@UData@@@std@@@0@AEAY0O@$$CBD@Z@4HA"@IMGREL # Action
	.long	1                               # ToState
	.long	"?dtor$21@?0???$make_unique@UData@@AEAY0O@$$CBD$0A@@std@@YA?AV?$unique_ptr@UData@@U?$default_delete@UData@@@std@@@0@AEAY0O@$$CBD@Z@4HA"@IMGREL # Action
"$ip2state$??$make_unique@UData@@AEAY0O@$$CBD$0A@@std@@YA?AV?$unique_ptr@UData@@U?$default_delete@UData@@@std@@@0@AEAY0O@$$CBD@Z":
	.long	.Lfunc_begin1@IMGREL            # IP
	.long	-1                              # ToState
	.long	.Ltmp10@IMGREL+1                # IP
	.long	1                               # ToState
	.long	.Ltmp9@IMGREL+1                 # IP
	.long	-1                              # ToState
	.long	.Ltmp12@IMGREL+1                # IP
	.long	2                               # ToState
	.long	.Ltmp16@IMGREL+1                # IP
	.long	1                               # ToState
	.long	.Ltmp14@IMGREL+1                # IP
	.long	0                               # ToState
	.long	.Ltmp15@IMGREL+1                # IP
	.long	-1                              # ToState
	.section	.text,"xr",discard,"??$make_unique@UData@@AEAY0O@$$CBD$0A@@std@@YA?AV?$unique_ptr@UData@@U?$default_delete@UData@@@std@@@0@AEAY0O@$$CBD@Z"
                                        # -- End function
	.def	"??1?$unique_ptr@UData@@U?$default_delete@UData@@@std@@@std@@QEAA@XZ";
	.scl	2;
	.type	32;
	.endef
	.section	.text,"xr",discard,"??1?$unique_ptr@UData@@U?$default_delete@UData@@@std@@@std@@QEAA@XZ"
	.globl	"??1?$unique_ptr@UData@@U?$default_delete@UData@@@std@@@std@@QEAA@XZ" # -- Begin function ??1?$unique_ptr@UData@@U?$default_delete@UData@@@std@@@std@@QEAA@XZ
	.p2align	4, 0x90
"??1?$unique_ptr@UData@@U?$default_delete@UData@@@std@@@std@@QEAA@XZ": # @"??1?$unique_ptr@UData@@U?$default_delete@UData@@@std@@@std@@QEAA@XZ"
.seh_proc "??1?$unique_ptr@UData@@U?$default_delete@UData@@@std@@@std@@QEAA@XZ"
# %bb.0:
	pushq	%rsi
	.seh_pushreg %rsi
	subq	$32, %rsp
	.seh_stackalloc 32
	.seh_endprologue
	movq	(%rcx), %rsi
	testq	%rsi, %rsi
	je	.LBB5_1
# %bb.2:
	movq	%rsi, %rcx
	callq	"??1Data@@QEAA@XZ"
	movq	%rsi, %rcx
	addq	$32, %rsp
	popq	%rsi
	jmp	"??3@YAXPEAX@Z"                 # TAILCALL
.LBB5_1:
	nop
	addq	$32, %rsp
	popq	%rsi
	retq
	.seh_endproc
                                        # -- End function
	.def	"?consume@Consumer@@QEAAXV?$unique_ptr@UData@@U?$default_delete@UData@@@std@@@std@@@Z";
	.scl	2;
	.type	32;
	.endef
	.section	.text,"xr",discard,"?consume@Consumer@@QEAAXV?$unique_ptr@UData@@U?$default_delete@UData@@@std@@@std@@@Z"
	.globl	"?consume@Consumer@@QEAAXV?$unique_ptr@UData@@U?$default_delete@UData@@@std@@@std@@@Z" # -- Begin function ?consume@Consumer@@QEAAXV?$unique_ptr@UData@@U?$default_delete@UData@@@std@@@std@@@Z
	.p2align	4, 0x90
"?consume@Consumer@@QEAAXV?$unique_ptr@UData@@U?$default_delete@UData@@@std@@@std@@@Z": # @"?consume@Consumer@@QEAAXV?$unique_ptr@UData@@U?$default_delete@UData@@@std@@@std@@@Z"
.Lfunc_begin2:
.seh_proc "?consume@Consumer@@QEAAXV?$unique_ptr@UData@@U?$default_delete@UData@@@std@@@std@@@Z"
	.seh_handler __CxxFrameHandler3, @unwind, @except
# %bb.0:
	pushq	%rbp
	.seh_pushreg %rbp
	pushq	%r14
	.seh_pushreg %r14
	pushq	%rsi
	.seh_pushreg %rsi
	pushq	%rdi
	.seh_pushreg %rdi
	pushq	%rbx
	.seh_pushreg %rbx
	subq	$112, %rsp
	.seh_stackalloc 112
	leaq	112(%rsp), %rbp
	.seh_setframe %rbp, 112
	.seh_endprologue
	movq	$-2, -8(%rbp)
	movq	%rdx, -16(%rbp)                 # 8-byte Spill
	movq	(%rdx), %rsi
	movq	24(%rsi), %r14
	movq	(%rsi), %rbx
	movq	16(%rsi), %rdi
	leaq	"??_C@_0CE@PBLKDBNL@?$FLCONSUMER?$FN?5got?5the?5data?3?5?C?$IC?B?$KL?$HL?$HN?C@"(%rip), %rax
	movq	%rax, -32(%rbp)
	movq	$35, -24(%rbp)
.Ltmp18:
	movl	$1, %ecx
	callq	__acrt_iob_func
.Ltmp19:
# %bb.1:
	cmpq	$16, %r14
	cmovaeq	%rbx, %rsi
	movq	%rsi, -64(%rbp)
	movq	%rdi, -56(%rbp)
	movabsq	$-4611686018427387904, %rcx     # imm = 0xC000000000000000
	movq	%rcx, -72(%rbp)
	movq	$1, -48(%rbp)
	leaq	-72(%rbp), %rcx
	movq	%rcx, -40(%rbp)
.Ltmp20:
	leaq	-32(%rbp), %r8
	leaq	-48(%rbp), %r9
	movb	$1, %cl
	movq	%rax, %rdx
	callq	"?_Vprint_unicode_impl@std@@YAXW4_Add_newline@1@QEAU_iobuf@@V?$basic_string_view@DU?$char_traits@D@std@@@1@V?$basic_format_args@V?$basic_format_context@V?$back_insert_iterator@V?$_Fmt_buffer@D@std@@@std@@D@std@@@1@@Z"
.Ltmp21:
# %bb.2:
	movq	-16(%rbp), %rax                 # 8-byte Reload
	movq	(%rax), %rsi
	testq	%rsi, %rsi
	je	.LBB6_4
# %bb.3:
	movq	%rsi, %rcx
	callq	"??1Data@@QEAA@XZ"
	movq	%rsi, %rcx
	callq	"??3@YAXPEAX@Z"
.LBB6_4:
	nop
	addq	$112, %rsp
	popq	%rbx
	popq	%rdi
	popq	%rsi
	popq	%r14
	popq	%rbp
	retq
	.seh_handlerdata
	.long	("$cppxdata$?consume@Consumer@@QEAAXV?$unique_ptr@UData@@U?$default_delete@UData@@@std@@@std@@@Z")@IMGREL
	.section	.text,"xr",discard,"?consume@Consumer@@QEAAXV?$unique_ptr@UData@@U?$default_delete@UData@@@std@@@std@@@Z"
	.seh_endproc
	.def	"?dtor$5@?0??consume@Consumer@@QEAAXV?$unique_ptr@UData@@U?$default_delete@UData@@@std@@@std@@@Z@4HA";
	.scl	3;
	.type	32;
	.endef
	.p2align	4, 0x90
"?dtor$5@?0??consume@Consumer@@QEAAXV?$unique_ptr@UData@@U?$default_delete@UData@@@std@@@std@@@Z@4HA":
.seh_proc "?dtor$5@?0??consume@Consumer@@QEAAXV?$unique_ptr@UData@@U?$default_delete@UData@@@std@@@std@@@Z@4HA"
.LBB6_5:
	movq	%rdx, 16(%rsp)
	pushq	%rbp
	.seh_pushreg %rbp
	pushq	%r14
	.seh_pushreg %r14
	pushq	%rsi
	.seh_pushreg %rsi
	pushq	%rdi
	.seh_pushreg %rdi
	pushq	%rbx
	.seh_pushreg %rbx
	subq	$32, %rsp
	.seh_stackalloc 32
	leaq	112(%rdx), %rbp
	.seh_endprologue
	movq	-16(%rbp), %rcx                 # 8-byte Reload
	callq	"??1?$unique_ptr@UData@@U?$default_delete@UData@@@std@@@std@@QEAA@XZ"
	nop
	addq	$32, %rsp
	popq	%rbx
	popq	%rdi
	popq	%rsi
	popq	%r14
	popq	%rbp
	retq                                    # CLEANUPRET
.Lfunc_end2:
	.seh_handlerdata
	.section	.text,"xr",discard,"?consume@Consumer@@QEAAXV?$unique_ptr@UData@@U?$default_delete@UData@@@std@@@std@@@Z"
	.seh_endproc
	.section	.xdata,"dr",associative,"?consume@Consumer@@QEAAXV?$unique_ptr@UData@@U?$default_delete@UData@@@std@@@std@@@Z"
	.p2align	2, 0x0
"$cppxdata$?consume@Consumer@@QEAAXV?$unique_ptr@UData@@U?$default_delete@UData@@@std@@@std@@@Z":
	.long	429065506                       # MagicNumber
	.long	1                               # MaxState
	.long	("$stateUnwindMap$?consume@Consumer@@QEAAXV?$unique_ptr@UData@@U?$default_delete@UData@@@std@@@std@@@Z")@IMGREL # UnwindMap
	.long	0                               # NumTryBlocks
	.long	0                               # TryBlockMap
	.long	3                               # IPMapEntries
	.long	("$ip2state$?consume@Consumer@@QEAAXV?$unique_ptr@UData@@U?$default_delete@UData@@@std@@@std@@@Z")@IMGREL # IPToStateXData
	.long	104                             # UnwindHelp
	.long	0                               # ESTypeList
	.long	1                               # EHFlags
"$stateUnwindMap$?consume@Consumer@@QEAAXV?$unique_ptr@UData@@U?$default_delete@UData@@@std@@@std@@@Z":
	.long	-1                              # ToState
	.long	"?dtor$5@?0??consume@Consumer@@QEAAXV?$unique_ptr@UData@@U?$default_delete@UData@@@std@@@std@@@Z@4HA"@IMGREL # Action
"$ip2state$?consume@Consumer@@QEAAXV?$unique_ptr@UData@@U?$default_delete@UData@@@std@@@std@@@Z":
	.long	.Lfunc_begin2@IMGREL            # IP
	.long	-1                              # ToState
	.long	.Ltmp18@IMGREL+1                # IP
	.long	0                               # ToState
	.long	.Ltmp21@IMGREL+1                # IP
	.long	-1                              # ToState
	.section	.text,"xr",discard,"?consume@Consumer@@QEAAXV?$unique_ptr@UData@@U?$default_delete@UData@@@std@@@std@@@Z"
                                        # -- End function
	.def	"??0Data@@QEAA@AEBV?$basic_string@DU?$char_traits@D@std@@V?$allocator@D@2@@std@@@Z";
	.scl	2;
	.type	32;
	.endef
	.section	.text,"xr",discard,"??0Data@@QEAA@AEBV?$basic_string@DU?$char_traits@D@std@@V?$allocator@D@2@@std@@@Z"
	.globl	"??0Data@@QEAA@AEBV?$basic_string@DU?$char_traits@D@std@@V?$allocator@D@2@@std@@@Z" # -- Begin function ??0Data@@QEAA@AEBV?$basic_string@DU?$char_traits@D@std@@V?$allocator@D@2@@std@@@Z
	.p2align	4, 0x90
"??0Data@@QEAA@AEBV?$basic_string@DU?$char_traits@D@std@@V?$allocator@D@2@@std@@@Z": # @"??0Data@@QEAA@AEBV?$basic_string@DU?$char_traits@D@std@@V?$allocator@D@2@@std@@@Z"
.Lfunc_begin3:
.seh_proc "??0Data@@QEAA@AEBV?$basic_string@DU?$char_traits@D@std@@V?$allocator@D@2@@std@@@Z"
	.seh_handler __CxxFrameHandler3, @unwind, @except
# %bb.0:
	pushq	%rbp
	.seh_pushreg %rbp
	pushq	%r15
	.seh_pushreg %r15
	pushq	%r14
	.seh_pushreg %r14
	pushq	%rsi
	.seh_pushreg %rsi
	pushq	%rdi
	.seh_pushreg %rdi
	pushq	%rbx
	.seh_pushreg %rbx
	subq	$104, %rsp
	.seh_stackalloc 104
	leaq	96(%rsp), %rbp
	.seh_setframe %rbp, 96
	.seh_endprologue
	movq	$-2, (%rbp)
	movq	%rdx, %rsi
	movq	%rcx, %r14
	xorps	%xmm0, %xmm0
	movups	%xmm0, 16(%rcx)
	movups	%xmm0, (%rcx)
	movq	16(%rdx), %rdi
	cmpq	$16, 24(%rdx)
	jb	.LBB7_2
# %bb.1:
	movq	(%rsi), %rsi
.LBB7_2:
	testq	%rdi, %rdi
	js	.LBB7_13
# %bb.3:
	cmpq	$15, %rdi
	ja	.LBB7_5
# %bb.4:
	movq	%rdi, 16(%r14)
	movq	$15, 24(%r14)
	movups	(%rsi), %xmm0
	movq	%r14, %r15
	movups	%xmm0, (%r14)
	jmp	.LBB7_9
.LBB7_5:
	movq	$15, 24(%r14)
	movq	%rdi, %rax
	orq	$15, %rax
	cmpq	$23, %rax
	movl	$22, %ebx
	cmovaeq	%rax, %rbx
	cmpq	$4095, %rbx                     # imm = 0xFFF
	jb	.LBB7_7
# %bb.6:
	leaq	40(%rbx), %rcx
	callq	"??2@YAPEAX_K@Z"
	leaq	39(%rax), %rcx
	andq	$-32, %rcx
	movq	%rax, -8(%rcx)
	jmp	.LBB7_8
.LBB7_7:
	leaq	1(%rbx), %rcx
	callq	"??2@YAPEAX_K@Z"
	movq	%rax, %rcx
.LBB7_8:
	movq	%rcx, (%r14)
	movq	%rdi, 16(%r14)
	movq	%r14, %r15
	movq	%rbx, 24(%r14)
	incq	%rdi
	movq	%rsi, %rdx
	movq	%rdi, %r8
	callq	memcpy
.LBB7_9:
	movq	%r15, -8(%rbp)                  # 8-byte Spill
	leaq	"??_C@_0BC@NGMPOJLI@?$FL?$HL?$HN?$FN?5Data?3?3Data?$CI?$CJ?$AA@"(%rip), %rax
	movq	%rax, -24(%rbp)
	movq	$17, -16(%rbp)
.Ltmp22:
	movl	$1, %ecx
	callq	__acrt_iob_func
.Ltmp23:
# %bb.10:
	movq	-8(%rbp), %rcx                  # 8-byte Reload
	movq	%rcx, -32(%rbp)
	movabsq	$-6917529027641081856, %rcx     # imm = 0xA000000000000000
	movq	%rcx, -40(%rbp)
	movq	$1, -56(%rbp)
	leaq	-40(%rbp), %rcx
	movq	%rcx, -48(%rbp)
.Ltmp24:
	leaq	-24(%rbp), %r8
	leaq	-56(%rbp), %r9
	movb	$1, %cl
	movq	%rax, %rdx
	callq	"?_Vprint_unicode_impl@std@@YAXW4_Add_newline@1@QEAU_iobuf@@V?$basic_string_view@DU?$char_traits@D@std@@@1@V?$basic_format_args@V?$basic_format_context@V?$back_insert_iterator@V?$_Fmt_buffer@D@std@@@std@@D@std@@@1@@Z"
.Ltmp25:
# %bb.11:
	movq	-8(%rbp), %rax                  # 8-byte Reload
	addq	$104, %rsp
	popq	%rbx
	popq	%rdi
	popq	%rsi
	popq	%r14
	popq	%r15
	popq	%rbp
	retq
.LBB7_13:
	callq	"?_Xlen_string@std@@YAXXZ"
	int3
	.seh_handlerdata
	.long	("$cppxdata$??0Data@@QEAA@AEBV?$basic_string@DU?$char_traits@D@std@@V?$allocator@D@2@@std@@@Z")@IMGREL
	.section	.text,"xr",discard,"??0Data@@QEAA@AEBV?$basic_string@DU?$char_traits@D@std@@V?$allocator@D@2@@std@@@Z"
	.seh_endproc
	.def	"?dtor$12@?0???0Data@@QEAA@AEBV?$basic_string@DU?$char_traits@D@std@@V?$allocator@D@2@@std@@@Z@4HA";
	.scl	3;
	.type	32;
	.endef
	.p2align	4, 0x90
"?dtor$12@?0???0Data@@QEAA@AEBV?$basic_string@DU?$char_traits@D@std@@V?$allocator@D@2@@std@@@Z@4HA":
.seh_proc "?dtor$12@?0???0Data@@QEAA@AEBV?$basic_string@DU?$char_traits@D@std@@V?$allocator@D@2@@std@@@Z@4HA"
.LBB7_12:
	movq	%rdx, 16(%rsp)
	pushq	%rbp
	.seh_pushreg %rbp
	pushq	%r15
	.seh_pushreg %r15
	pushq	%r14
	.seh_pushreg %r14
	pushq	%rsi
	.seh_pushreg %rsi
	pushq	%rdi
	.seh_pushreg %rdi
	pushq	%rbx
	.seh_pushreg %rbx
	subq	$40, %rsp
	.seh_stackalloc 40
	leaq	96(%rdx), %rbp
	.seh_endprologue
	movq	-8(%rbp), %rcx                  # 8-byte Reload
	callq	"??1?$basic_string@DU?$char_traits@D@std@@V?$allocator@D@2@@std@@QEAA@XZ"
	nop
	addq	$40, %rsp
	popq	%rbx
	popq	%rdi
	popq	%rsi
	popq	%r14
	popq	%r15
	popq	%rbp
	retq                                    # CLEANUPRET
.Lfunc_end3:
	.seh_handlerdata
	.section	.text,"xr",discard,"??0Data@@QEAA@AEBV?$basic_string@DU?$char_traits@D@std@@V?$allocator@D@2@@std@@@Z"
	.seh_endproc
	.section	.xdata,"dr",associative,"??0Data@@QEAA@AEBV?$basic_string@DU?$char_traits@D@std@@V?$allocator@D@2@@std@@@Z"
	.p2align	2, 0x0
"$cppxdata$??0Data@@QEAA@AEBV?$basic_string@DU?$char_traits@D@std@@V?$allocator@D@2@@std@@@Z":
	.long	429065506                       # MagicNumber
	.long	1                               # MaxState
	.long	("$stateUnwindMap$??0Data@@QEAA@AEBV?$basic_string@DU?$char_traits@D@std@@V?$allocator@D@2@@std@@@Z")@IMGREL # UnwindMap
	.long	0                               # NumTryBlocks
	.long	0                               # TryBlockMap
	.long	3                               # IPMapEntries
	.long	("$ip2state$??0Data@@QEAA@AEBV?$basic_string@DU?$char_traits@D@std@@V?$allocator@D@2@@std@@@Z")@IMGREL # IPToStateXData
	.long	96                              # UnwindHelp
	.long	0                               # ESTypeList
	.long	1                               # EHFlags
"$stateUnwindMap$??0Data@@QEAA@AEBV?$basic_string@DU?$char_traits@D@std@@V?$allocator@D@2@@std@@@Z":
	.long	-1                              # ToState
	.long	"?dtor$12@?0???0Data@@QEAA@AEBV?$basic_string@DU?$char_traits@D@std@@V?$allocator@D@2@@std@@@Z@4HA"@IMGREL # Action
"$ip2state$??0Data@@QEAA@AEBV?$basic_string@DU?$char_traits@D@std@@V?$allocator@D@2@@std@@@Z":
	.long	.Lfunc_begin3@IMGREL            # IP
	.long	-1                              # ToState
	.long	.Ltmp22@IMGREL+1                # IP
	.long	0                               # ToState
	.long	.Ltmp25@IMGREL+1                # IP
	.long	-1                              # ToState
	.section	.text,"xr",discard,"??0Data@@QEAA@AEBV?$basic_string@DU?$char_traits@D@std@@V?$allocator@D@2@@std@@@Z"
                                        # -- End function
	.def	"??1?$basic_string@DU?$char_traits@D@std@@V?$allocator@D@2@@std@@QEAA@XZ";
	.scl	2;
	.type	32;
	.endef
	.section	.text,"xr",discard,"??1?$basic_string@DU?$char_traits@D@std@@V?$allocator@D@2@@std@@QEAA@XZ"
	.globl	"??1?$basic_string@DU?$char_traits@D@std@@V?$allocator@D@2@@std@@QEAA@XZ" # -- Begin function ??1?$basic_string@DU?$char_traits@D@std@@V?$allocator@D@2@@std@@QEAA@XZ
	.p2align	4, 0x90
"??1?$basic_string@DU?$char_traits@D@std@@V?$allocator@D@2@@std@@QEAA@XZ": # @"??1?$basic_string@DU?$char_traits@D@std@@V?$allocator@D@2@@std@@QEAA@XZ"
.Lfunc_begin4:
.seh_proc "??1?$basic_string@DU?$char_traits@D@std@@V?$allocator@D@2@@std@@QEAA@XZ"
	.seh_handler __CxxFrameHandler3, @unwind, @except
# %bb.0:
	pushq	%rbp
	.seh_pushreg %rbp
	pushq	%rsi
	.seh_pushreg %rsi
	subq	$40, %rsp
	.seh_stackalloc 40
	leaq	32(%rsp), %rbp
	.seh_setframe %rbp, 32
	.seh_endprologue
	movq	$-2, (%rbp)
	movq	%rcx, %rsi
	movq	24(%rcx), %rax
	cmpq	$16, %rax
	jb	.LBB8_8
# %bb.1:
	movq	(%rsi), %rcx
	leaq	1(%rax), %rdx
	cmpq	$4096, %rdx                     # imm = 0x1000
	jb	.LBB8_7
# %bb.2:
	movq	-8(%rcx), %r8
	addq	$-8, %rcx
	subq	%r8, %rcx
	cmpq	$32, %rcx
	jae	.LBB8_3
# %bb.6:
	addq	$40, %rax
	movq	%rax, %rdx
	movq	%r8, %rcx
.LBB8_7:
	callq	"??3@YAXPEAX_K@Z"
.LBB8_8:
	movq	$0, 16(%rsi)
	movq	$15, 24(%rsi)
	movb	$0, (%rsi)
	addq	$40, %rsp
	popq	%rsi
	popq	%rbp
	retq
.LBB8_3:
.Ltmp26:
	callq	_invalid_parameter_noinfo_noreturn
.Ltmp27:
# %bb.4:
	int3
	.seh_handlerdata
	.long	("$cppxdata$??1?$basic_string@DU?$char_traits@D@std@@V?$allocator@D@2@@std@@QEAA@XZ")@IMGREL
	.section	.text,"xr",discard,"??1?$basic_string@DU?$char_traits@D@std@@V?$allocator@D@2@@std@@QEAA@XZ"
	.seh_endproc
	.def	"?dtor$5@?0???1?$basic_string@DU?$char_traits@D@std@@V?$allocator@D@2@@std@@QEAA@XZ@4HA";
	.scl	3;
	.type	32;
	.endef
	.p2align	4, 0x90
"?dtor$5@?0???1?$basic_string@DU?$char_traits@D@std@@V?$allocator@D@2@@std@@QEAA@XZ@4HA":
.seh_proc "?dtor$5@?0???1?$basic_string@DU?$char_traits@D@std@@V?$allocator@D@2@@std@@QEAA@XZ@4HA"
.LBB8_5:
	movq	%rdx, 16(%rsp)
	pushq	%rbp
	.seh_pushreg %rbp
	pushq	%rsi
	.seh_pushreg %rsi
	subq	$40, %rsp
	.seh_stackalloc 40
	leaq	32(%rdx), %rbp
	.seh_endprologue
	callq	__std_terminate
	int3
.Lfunc_end4:
	.seh_handlerdata
	.section	.text,"xr",discard,"??1?$basic_string@DU?$char_traits@D@std@@V?$allocator@D@2@@std@@QEAA@XZ"
	.seh_endproc
	.section	.xdata,"dr",associative,"??1?$basic_string@DU?$char_traits@D@std@@V?$allocator@D@2@@std@@QEAA@XZ"
	.p2align	2, 0x0
"$cppxdata$??1?$basic_string@DU?$char_traits@D@std@@V?$allocator@D@2@@std@@QEAA@XZ":
	.long	429065506                       # MagicNumber
	.long	1                               # MaxState
	.long	("$stateUnwindMap$??1?$basic_string@DU?$char_traits@D@std@@V?$allocator@D@2@@std@@QEAA@XZ")@IMGREL # UnwindMap
	.long	0                               # NumTryBlocks
	.long	0                               # TryBlockMap
	.long	3                               # IPMapEntries
	.long	("$ip2state$??1?$basic_string@DU?$char_traits@D@std@@V?$allocator@D@2@@std@@QEAA@XZ")@IMGREL # IPToStateXData
	.long	32                              # UnwindHelp
	.long	0                               # ESTypeList
	.long	1                               # EHFlags
"$stateUnwindMap$??1?$basic_string@DU?$char_traits@D@std@@V?$allocator@D@2@@std@@QEAA@XZ":
	.long	-1                              # ToState
	.long	"?dtor$5@?0???1?$basic_string@DU?$char_traits@D@std@@V?$allocator@D@2@@std@@QEAA@XZ@4HA"@IMGREL # Action
"$ip2state$??1?$basic_string@DU?$char_traits@D@std@@V?$allocator@D@2@@std@@QEAA@XZ":
	.long	.Lfunc_begin4@IMGREL            # IP
	.long	-1                              # ToState
	.long	.Ltmp26@IMGREL+1                # IP
	.long	0                               # ToState
	.long	.Ltmp27@IMGREL+1                # IP
	.long	-1                              # ToState
	.section	.text,"xr",discard,"??1?$basic_string@DU?$char_traits@D@std@@V?$allocator@D@2@@std@@QEAA@XZ"
                                        # -- End function
	.def	"?_Xlen_string@std@@YAXXZ";
	.scl	2;
	.type	32;
	.endef
	.section	.text,"xr",discard,"?_Xlen_string@std@@YAXXZ"
	.globl	"?_Xlen_string@std@@YAXXZ"      # -- Begin function ?_Xlen_string@std@@YAXXZ
	.p2align	4, 0x90
"?_Xlen_string@std@@YAXXZ":             # @"?_Xlen_string@std@@YAXXZ"
.seh_proc "?_Xlen_string@std@@YAXXZ"
# %bb.0:
	subq	$40, %rsp
	.seh_stackalloc 40
	.seh_endprologue
	leaq	"??_C@_0BA@JFNIOLAK@string?5too?5long?$AA@"(%rip), %rcx
	callq	"?_Xlength_error@std@@YAXPEBD@Z"
	int3
	.seh_endproc
                                        # -- End function
	.def	"?_Throw_bad_array_new_length@std@@YAXXZ";
	.scl	2;
	.type	32;
	.endef
	.section	.text,"xr",discard,"?_Throw_bad_array_new_length@std@@YAXXZ"
	.globl	"?_Throw_bad_array_new_length@std@@YAXXZ" # -- Begin function ?_Throw_bad_array_new_length@std@@YAXXZ
	.p2align	4, 0x90
"?_Throw_bad_array_new_length@std@@YAXXZ": # @"?_Throw_bad_array_new_length@std@@YAXXZ"
.seh_proc "?_Throw_bad_array_new_length@std@@YAXXZ"
# %bb.0:
	subq	$56, %rsp
	.seh_stackalloc 56
	.seh_endprologue
	movq	$0, 48(%rsp)
	leaq	"??_C@_0BF@KINCDENJ@bad?5array?5new?5length?$AA@"(%rip), %rax
	movq	%rax, 40(%rsp)
	leaq	"??_7bad_array_new_length@std@@6B@"(%rip), %rax
	movq	%rax, 32(%rsp)
	leaq	"_TI3?AVbad_array_new_length@std@@"(%rip), %rdx
	leaq	32(%rsp), %rcx
	callq	_CxxThrowException
	int3
	.seh_endproc
                                        # -- End function
	.def	"??0bad_array_new_length@std@@QEAA@AEBV01@@Z";
	.scl	2;
	.type	32;
	.endef
	.section	.text,"xr",discard,"??0bad_array_new_length@std@@QEAA@AEBV01@@Z"
	.globl	"??0bad_array_new_length@std@@QEAA@AEBV01@@Z" # -- Begin function ??0bad_array_new_length@std@@QEAA@AEBV01@@Z
	.p2align	4, 0x90
"??0bad_array_new_length@std@@QEAA@AEBV01@@Z": # @"??0bad_array_new_length@std@@QEAA@AEBV01@@Z"
.Lfunc_begin5:
.seh_proc "??0bad_array_new_length@std@@QEAA@AEBV01@@Z"
	.seh_handler __CxxFrameHandler3, @unwind, @except
# %bb.0:
	pushq	%rbp
	.seh_pushreg %rbp
	pushq	%rsi
	.seh_pushreg %rsi
	subq	$40, %rsp
	.seh_stackalloc 40
	leaq	32(%rsp), %rbp
	.seh_setframe %rbp, 32
	.seh_endprologue
	movq	$-2, (%rbp)
	movq	%rcx, %rsi
	leaq	"??_7exception@std@@6B@"(%rip), %rax
	movq	%rax, (%rcx)
	leaq	8(%rcx), %rax
	xorps	%xmm0, %xmm0
	movups	%xmm0, 8(%rcx)
	leaq	8(%rdx), %rcx
.Ltmp28:
	movq	%rax, %rdx
	callq	__std_exception_copy
.Ltmp29:
# %bb.1:
	leaq	"??_7bad_array_new_length@std@@6B@"(%rip), %rax
	movq	%rax, (%rsi)
	movq	%rsi, %rax
	addq	$40, %rsp
	popq	%rsi
	popq	%rbp
	retq
	.seh_handlerdata
	.long	("$cppxdata$??0bad_array_new_length@std@@QEAA@AEBV01@@Z")@IMGREL
	.section	.text,"xr",discard,"??0bad_array_new_length@std@@QEAA@AEBV01@@Z"
	.seh_endproc
	.def	"?dtor$2@?0???0bad_array_new_length@std@@QEAA@AEBV01@@Z@4HA";
	.scl	3;
	.type	32;
	.endef
	.p2align	4, 0x90
"?dtor$2@?0???0bad_array_new_length@std@@QEAA@AEBV01@@Z@4HA":
.seh_proc "?dtor$2@?0???0bad_array_new_length@std@@QEAA@AEBV01@@Z@4HA"
.LBB11_2:
	movq	%rdx, 16(%rsp)
	pushq	%rbp
	.seh_pushreg %rbp
	pushq	%rsi
	.seh_pushreg %rsi
	subq	$40, %rsp
	.seh_stackalloc 40
	leaq	32(%rdx), %rbp
	.seh_endprologue
	callq	__std_terminate
	int3
.Lfunc_end5:
	.seh_handlerdata
	.section	.text,"xr",discard,"??0bad_array_new_length@std@@QEAA@AEBV01@@Z"
	.seh_endproc
	.section	.xdata,"dr",associative,"??0bad_array_new_length@std@@QEAA@AEBV01@@Z"
	.p2align	2, 0x0
"$cppxdata$??0bad_array_new_length@std@@QEAA@AEBV01@@Z":
	.long	429065506                       # MagicNumber
	.long	1                               # MaxState
	.long	("$stateUnwindMap$??0bad_array_new_length@std@@QEAA@AEBV01@@Z")@IMGREL # UnwindMap
	.long	0                               # NumTryBlocks
	.long	0                               # TryBlockMap
	.long	3                               # IPMapEntries
	.long	("$ip2state$??0bad_array_new_length@std@@QEAA@AEBV01@@Z")@IMGREL # IPToStateXData
	.long	32                              # UnwindHelp
	.long	0                               # ESTypeList
	.long	1                               # EHFlags
"$stateUnwindMap$??0bad_array_new_length@std@@QEAA@AEBV01@@Z":
	.long	-1                              # ToState
	.long	"?dtor$2@?0???0bad_array_new_length@std@@QEAA@AEBV01@@Z@4HA"@IMGREL # Action
"$ip2state$??0bad_array_new_length@std@@QEAA@AEBV01@@Z":
	.long	.Lfunc_begin5@IMGREL            # IP
	.long	-1                              # ToState
	.long	.Ltmp28@IMGREL+1                # IP
	.long	0                               # ToState
	.long	.Ltmp29@IMGREL+1                # IP
	.long	-1                              # ToState
	.section	.text,"xr",discard,"??0bad_array_new_length@std@@QEAA@AEBV01@@Z"
                                        # -- End function
	.def	"??0bad_alloc@std@@QEAA@AEBV01@@Z";
	.scl	2;
	.type	32;
	.endef
	.section	.text,"xr",discard,"??0bad_alloc@std@@QEAA@AEBV01@@Z"
	.globl	"??0bad_alloc@std@@QEAA@AEBV01@@Z" # -- Begin function ??0bad_alloc@std@@QEAA@AEBV01@@Z
	.p2align	4, 0x90
"??0bad_alloc@std@@QEAA@AEBV01@@Z":     # @"??0bad_alloc@std@@QEAA@AEBV01@@Z"
.Lfunc_begin6:
.seh_proc "??0bad_alloc@std@@QEAA@AEBV01@@Z"
	.seh_handler __CxxFrameHandler3, @unwind, @except
# %bb.0:
	pushq	%rbp
	.seh_pushreg %rbp
	pushq	%rsi
	.seh_pushreg %rsi
	subq	$40, %rsp
	.seh_stackalloc 40
	leaq	32(%rsp), %rbp
	.seh_setframe %rbp, 32
	.seh_endprologue
	movq	$-2, (%rbp)
	movq	%rcx, %rsi
	leaq	"??_7exception@std@@6B@"(%rip), %rax
	movq	%rax, (%rcx)
	leaq	8(%rcx), %rax
	xorps	%xmm0, %xmm0
	movups	%xmm0, 8(%rcx)
	leaq	8(%rdx), %rcx
.Ltmp30:
	movq	%rax, %rdx
	callq	__std_exception_copy
.Ltmp31:
# %bb.1:
	leaq	"??_7bad_alloc@std@@6B@"(%rip), %rax
	movq	%rax, (%rsi)
	movq	%rsi, %rax
	addq	$40, %rsp
	popq	%rsi
	popq	%rbp
	retq
	.seh_handlerdata
	.long	("$cppxdata$??0bad_alloc@std@@QEAA@AEBV01@@Z")@IMGREL
	.section	.text,"xr",discard,"??0bad_alloc@std@@QEAA@AEBV01@@Z"
	.seh_endproc
	.def	"?dtor$2@?0???0bad_alloc@std@@QEAA@AEBV01@@Z@4HA";
	.scl	3;
	.type	32;
	.endef
	.p2align	4, 0x90
"?dtor$2@?0???0bad_alloc@std@@QEAA@AEBV01@@Z@4HA":
.seh_proc "?dtor$2@?0???0bad_alloc@std@@QEAA@AEBV01@@Z@4HA"
.LBB12_2:
	movq	%rdx, 16(%rsp)
	pushq	%rbp
	.seh_pushreg %rbp
	pushq	%rsi
	.seh_pushreg %rsi
	subq	$40, %rsp
	.seh_stackalloc 40
	leaq	32(%rdx), %rbp
	.seh_endprologue
	callq	__std_terminate
	int3
.Lfunc_end6:
	.seh_handlerdata
	.section	.text,"xr",discard,"??0bad_alloc@std@@QEAA@AEBV01@@Z"
	.seh_endproc
	.section	.xdata,"dr",associative,"??0bad_alloc@std@@QEAA@AEBV01@@Z"
	.p2align	2, 0x0
"$cppxdata$??0bad_alloc@std@@QEAA@AEBV01@@Z":
	.long	429065506                       # MagicNumber
	.long	1                               # MaxState
	.long	("$stateUnwindMap$??0bad_alloc@std@@QEAA@AEBV01@@Z")@IMGREL # UnwindMap
	.long	0                               # NumTryBlocks
	.long	0                               # TryBlockMap
	.long	3                               # IPMapEntries
	.long	("$ip2state$??0bad_alloc@std@@QEAA@AEBV01@@Z")@IMGREL # IPToStateXData
	.long	32                              # UnwindHelp
	.long	0                               # ESTypeList
	.long	1                               # EHFlags
"$stateUnwindMap$??0bad_alloc@std@@QEAA@AEBV01@@Z":
	.long	-1                              # ToState
	.long	"?dtor$2@?0???0bad_alloc@std@@QEAA@AEBV01@@Z@4HA"@IMGREL # Action
"$ip2state$??0bad_alloc@std@@QEAA@AEBV01@@Z":
	.long	.Lfunc_begin6@IMGREL            # IP
	.long	-1                              # ToState
	.long	.Ltmp30@IMGREL+1                # IP
	.long	0                               # ToState
	.long	.Ltmp31@IMGREL+1                # IP
	.long	-1                              # ToState
	.section	.text,"xr",discard,"??0bad_alloc@std@@QEAA@AEBV01@@Z"
                                        # -- End function
	.def	"??0exception@std@@QEAA@AEBV01@@Z";
	.scl	2;
	.type	32;
	.endef
	.section	.text,"xr",discard,"??0exception@std@@QEAA@AEBV01@@Z"
	.globl	"??0exception@std@@QEAA@AEBV01@@Z" # -- Begin function ??0exception@std@@QEAA@AEBV01@@Z
	.p2align	4, 0x90
"??0exception@std@@QEAA@AEBV01@@Z":     # @"??0exception@std@@QEAA@AEBV01@@Z"
.Lfunc_begin7:
.seh_proc "??0exception@std@@QEAA@AEBV01@@Z"
	.seh_handler __CxxFrameHandler3, @unwind, @except
# %bb.0:
	pushq	%rbp
	.seh_pushreg %rbp
	pushq	%rsi
	.seh_pushreg %rsi
	subq	$40, %rsp
	.seh_stackalloc 40
	leaq	32(%rsp), %rbp
	.seh_setframe %rbp, 32
	.seh_endprologue
	movq	$-2, (%rbp)
	movq	%rcx, %rsi
	leaq	"??_7exception@std@@6B@"(%rip), %rax
	movq	%rax, (%rcx)
	leaq	8(%rcx), %rax
	xorps	%xmm0, %xmm0
	movups	%xmm0, 8(%rcx)
	leaq	8(%rdx), %rcx
.Ltmp32:
	movq	%rax, %rdx
	callq	__std_exception_copy
.Ltmp33:
# %bb.1:
	movq	%rsi, %rax
	addq	$40, %rsp
	popq	%rsi
	popq	%rbp
	retq
	.seh_handlerdata
	.long	("$cppxdata$??0exception@std@@QEAA@AEBV01@@Z")@IMGREL
	.section	.text,"xr",discard,"??0exception@std@@QEAA@AEBV01@@Z"
	.seh_endproc
	.def	"?dtor$2@?0???0exception@std@@QEAA@AEBV01@@Z@4HA";
	.scl	3;
	.type	32;
	.endef
	.p2align	4, 0x90
"?dtor$2@?0???0exception@std@@QEAA@AEBV01@@Z@4HA":
.seh_proc "?dtor$2@?0???0exception@std@@QEAA@AEBV01@@Z@4HA"
.LBB13_2:
	movq	%rdx, 16(%rsp)
	pushq	%rbp
	.seh_pushreg %rbp
	pushq	%rsi
	.seh_pushreg %rsi
	subq	$40, %rsp
	.seh_stackalloc 40
	leaq	32(%rdx), %rbp
	.seh_endprologue
	callq	__std_terminate
	int3
.Lfunc_end7:
	.seh_handlerdata
	.section	.text,"xr",discard,"??0exception@std@@QEAA@AEBV01@@Z"
	.seh_endproc
	.section	.xdata,"dr",associative,"??0exception@std@@QEAA@AEBV01@@Z"
	.p2align	2, 0x0
"$cppxdata$??0exception@std@@QEAA@AEBV01@@Z":
	.long	429065506                       # MagicNumber
	.long	1                               # MaxState
	.long	("$stateUnwindMap$??0exception@std@@QEAA@AEBV01@@Z")@IMGREL # UnwindMap
	.long	0                               # NumTryBlocks
	.long	0                               # TryBlockMap
	.long	3                               # IPMapEntries
	.long	("$ip2state$??0exception@std@@QEAA@AEBV01@@Z")@IMGREL # IPToStateXData
	.long	32                              # UnwindHelp
	.long	0                               # ESTypeList
	.long	1                               # EHFlags
"$stateUnwindMap$??0exception@std@@QEAA@AEBV01@@Z":
	.long	-1                              # ToState
	.long	"?dtor$2@?0???0exception@std@@QEAA@AEBV01@@Z@4HA"@IMGREL # Action
"$ip2state$??0exception@std@@QEAA@AEBV01@@Z":
	.long	.Lfunc_begin7@IMGREL            # IP
	.long	-1                              # ToState
	.long	.Ltmp32@IMGREL+1                # IP
	.long	0                               # ToState
	.long	.Ltmp33@IMGREL+1                # IP
	.long	-1                              # ToState
	.section	.text,"xr",discard,"??0exception@std@@QEAA@AEBV01@@Z"
                                        # -- End function
	.def	"??_Gbad_array_new_length@std@@UEAAPEAXI@Z";
	.scl	2;
	.type	32;
	.endef
	.section	.text,"xr",discard,"??_Gbad_array_new_length@std@@UEAAPEAXI@Z"
	.globl	"??_Gbad_array_new_length@std@@UEAAPEAXI@Z" # -- Begin function ??_Gbad_array_new_length@std@@UEAAPEAXI@Z
	.p2align	4, 0x90
"??_Gbad_array_new_length@std@@UEAAPEAXI@Z": # @"??_Gbad_array_new_length@std@@UEAAPEAXI@Z"
.Lfunc_begin8:
.seh_proc "??_Gbad_array_new_length@std@@UEAAPEAXI@Z"
	.seh_handler __CxxFrameHandler3, @unwind, @except
# %bb.0:
	pushq	%rbp
	.seh_pushreg %rbp
	pushq	%rsi
	.seh_pushreg %rsi
	pushq	%rdi
	.seh_pushreg %rdi
	subq	$48, %rsp
	.seh_stackalloc 48
	leaq	48(%rsp), %rbp
	.seh_setframe %rbp, 48
	.seh_endprologue
	movq	$-2, -8(%rbp)
	movl	%edx, %edi
	movq	%rcx, %rsi
	leaq	"??_7exception@std@@6B@"(%rip), %rax
	movq	%rax, (%rcx)
	addq	$8, %rcx
.Ltmp34:
	callq	__std_exception_destroy
.Ltmp35:
# %bb.1:
	testl	%edi, %edi
	je	.LBB14_3
# %bb.2:
	movq	%rsi, %rcx
	callq	"??3@YAXPEAX@Z"
.LBB14_3:
	movq	%rsi, %rax
	addq	$48, %rsp
	popq	%rdi
	popq	%rsi
	popq	%rbp
	retq
	.seh_handlerdata
	.long	("$cppxdata$??_Gbad_array_new_length@std@@UEAAPEAXI@Z")@IMGREL
	.section	.text,"xr",discard,"??_Gbad_array_new_length@std@@UEAAPEAXI@Z"
	.seh_endproc
	.def	"?dtor$4@?0???_Gbad_array_new_length@std@@UEAAPEAXI@Z@4HA";
	.scl	3;
	.type	32;
	.endef
	.p2align	4, 0x90
"?dtor$4@?0???_Gbad_array_new_length@std@@UEAAPEAXI@Z@4HA":
.seh_proc "?dtor$4@?0???_Gbad_array_new_length@std@@UEAAPEAXI@Z@4HA"
.LBB14_4:
	movq	%rdx, 16(%rsp)
	pushq	%rbp
	.seh_pushreg %rbp
	pushq	%rsi
	.seh_pushreg %rsi
	pushq	%rdi
	.seh_pushreg %rdi
	subq	$32, %rsp
	.seh_stackalloc 32
	leaq	48(%rdx), %rbp
	.seh_endprologue
	callq	__std_terminate
	int3
.Lfunc_end8:
	.seh_handlerdata
	.section	.text,"xr",discard,"??_Gbad_array_new_length@std@@UEAAPEAXI@Z"
	.seh_endproc
	.section	.xdata,"dr",associative,"??_Gbad_array_new_length@std@@UEAAPEAXI@Z"
	.p2align	2, 0x0
"$cppxdata$??_Gbad_array_new_length@std@@UEAAPEAXI@Z":
	.long	429065506                       # MagicNumber
	.long	1                               # MaxState
	.long	("$stateUnwindMap$??_Gbad_array_new_length@std@@UEAAPEAXI@Z")@IMGREL # UnwindMap
	.long	0                               # NumTryBlocks
	.long	0                               # TryBlockMap
	.long	3                               # IPMapEntries
	.long	("$ip2state$??_Gbad_array_new_length@std@@UEAAPEAXI@Z")@IMGREL # IPToStateXData
	.long	40                              # UnwindHelp
	.long	0                               # ESTypeList
	.long	1                               # EHFlags
"$stateUnwindMap$??_Gbad_array_new_length@std@@UEAAPEAXI@Z":
	.long	-1                              # ToState
	.long	"?dtor$4@?0???_Gbad_array_new_length@std@@UEAAPEAXI@Z@4HA"@IMGREL # Action
"$ip2state$??_Gbad_array_new_length@std@@UEAAPEAXI@Z":
	.long	.Lfunc_begin8@IMGREL            # IP
	.long	-1                              # ToState
	.long	.Ltmp34@IMGREL+1                # IP
	.long	0                               # ToState
	.long	.Ltmp35@IMGREL+1                # IP
	.long	-1                              # ToState
	.section	.text,"xr",discard,"??_Gbad_array_new_length@std@@UEAAPEAXI@Z"
                                        # -- End function
	.def	"?what@exception@std@@UEBAPEBDXZ";
	.scl	2;
	.type	32;
	.endef
	.section	.text,"xr",discard,"?what@exception@std@@UEBAPEBDXZ"
	.globl	"?what@exception@std@@UEBAPEBDXZ" # -- Begin function ?what@exception@std@@UEBAPEBDXZ
	.p2align	4, 0x90
"?what@exception@std@@UEBAPEBDXZ":      # @"?what@exception@std@@UEBAPEBDXZ"
# %bb.0:
	movq	8(%rcx), %rcx
	testq	%rcx, %rcx
	leaq	"??_C@_0BC@EOODALEL@Unknown?5exception?$AA@"(%rip), %rax
	cmovneq	%rcx, %rax
	retq
                                        # -- End function
	.def	"??_Gbad_alloc@std@@UEAAPEAXI@Z";
	.scl	2;
	.type	32;
	.endef
	.section	.text,"xr",discard,"??_Gbad_alloc@std@@UEAAPEAXI@Z"
	.globl	"??_Gbad_alloc@std@@UEAAPEAXI@Z" # -- Begin function ??_Gbad_alloc@std@@UEAAPEAXI@Z
	.p2align	4, 0x90
"??_Gbad_alloc@std@@UEAAPEAXI@Z":       # @"??_Gbad_alloc@std@@UEAAPEAXI@Z"
.Lfunc_begin9:
.seh_proc "??_Gbad_alloc@std@@UEAAPEAXI@Z"
	.seh_handler __CxxFrameHandler3, @unwind, @except
# %bb.0:
	pushq	%rbp
	.seh_pushreg %rbp
	pushq	%rsi
	.seh_pushreg %rsi
	pushq	%rdi
	.seh_pushreg %rdi
	subq	$48, %rsp
	.seh_stackalloc 48
	leaq	48(%rsp), %rbp
	.seh_setframe %rbp, 48
	.seh_endprologue
	movq	$-2, -8(%rbp)
	movl	%edx, %edi
	movq	%rcx, %rsi
	leaq	"??_7exception@std@@6B@"(%rip), %rax
	movq	%rax, (%rcx)
	addq	$8, %rcx
.Ltmp36:
	callq	__std_exception_destroy
.Ltmp37:
# %bb.1:
	testl	%edi, %edi
	je	.LBB16_3
# %bb.2:
	movq	%rsi, %rcx
	callq	"??3@YAXPEAX@Z"
.LBB16_3:
	movq	%rsi, %rax
	addq	$48, %rsp
	popq	%rdi
	popq	%rsi
	popq	%rbp
	retq
	.seh_handlerdata
	.long	("$cppxdata$??_Gbad_alloc@std@@UEAAPEAXI@Z")@IMGREL
	.section	.text,"xr",discard,"??_Gbad_alloc@std@@UEAAPEAXI@Z"
	.seh_endproc
	.def	"?dtor$4@?0???_Gbad_alloc@std@@UEAAPEAXI@Z@4HA";
	.scl	3;
	.type	32;
	.endef
	.p2align	4, 0x90
"?dtor$4@?0???_Gbad_alloc@std@@UEAAPEAXI@Z@4HA":
.seh_proc "?dtor$4@?0???_Gbad_alloc@std@@UEAAPEAXI@Z@4HA"
.LBB16_4:
	movq	%rdx, 16(%rsp)
	pushq	%rbp
	.seh_pushreg %rbp
	pushq	%rsi
	.seh_pushreg %rsi
	pushq	%rdi
	.seh_pushreg %rdi
	subq	$32, %rsp
	.seh_stackalloc 32
	leaq	48(%rdx), %rbp
	.seh_endprologue
	callq	__std_terminate
	int3
.Lfunc_end9:
	.seh_handlerdata
	.section	.text,"xr",discard,"??_Gbad_alloc@std@@UEAAPEAXI@Z"
	.seh_endproc
	.section	.xdata,"dr",associative,"??_Gbad_alloc@std@@UEAAPEAXI@Z"
	.p2align	2, 0x0
"$cppxdata$??_Gbad_alloc@std@@UEAAPEAXI@Z":
	.long	429065506                       # MagicNumber
	.long	1                               # MaxState
	.long	("$stateUnwindMap$??_Gbad_alloc@std@@UEAAPEAXI@Z")@IMGREL # UnwindMap
	.long	0                               # NumTryBlocks
	.long	0                               # TryBlockMap
	.long	3                               # IPMapEntries
	.long	("$ip2state$??_Gbad_alloc@std@@UEAAPEAXI@Z")@IMGREL # IPToStateXData
	.long	40                              # UnwindHelp
	.long	0                               # ESTypeList
	.long	1                               # EHFlags
"$stateUnwindMap$??_Gbad_alloc@std@@UEAAPEAXI@Z":
	.long	-1                              # ToState
	.long	"?dtor$4@?0???_Gbad_alloc@std@@UEAAPEAXI@Z@4HA"@IMGREL # Action
"$ip2state$??_Gbad_alloc@std@@UEAAPEAXI@Z":
	.long	.Lfunc_begin9@IMGREL            # IP
	.long	-1                              # ToState
	.long	.Ltmp36@IMGREL+1                # IP
	.long	0                               # ToState
	.long	.Ltmp37@IMGREL+1                # IP
	.long	-1                              # ToState
	.section	.text,"xr",discard,"??_Gbad_alloc@std@@UEAAPEAXI@Z"
                                        # -- End function
	.def	"??_Gexception@std@@UEAAPEAXI@Z";
	.scl	2;
	.type	32;
	.endef
	.section	.text,"xr",discard,"??_Gexception@std@@UEAAPEAXI@Z"
	.globl	"??_Gexception@std@@UEAAPEAXI@Z" # -- Begin function ??_Gexception@std@@UEAAPEAXI@Z
	.p2align	4, 0x90
"??_Gexception@std@@UEAAPEAXI@Z":       # @"??_Gexception@std@@UEAAPEAXI@Z"
.Lfunc_begin10:
.seh_proc "??_Gexception@std@@UEAAPEAXI@Z"
	.seh_handler __CxxFrameHandler3, @unwind, @except
# %bb.0:
	pushq	%rbp
	.seh_pushreg %rbp
	pushq	%rsi
	.seh_pushreg %rsi
	pushq	%rdi
	.seh_pushreg %rdi
	subq	$48, %rsp
	.seh_stackalloc 48
	leaq	48(%rsp), %rbp
	.seh_setframe %rbp, 48
	.seh_endprologue
	movq	$-2, -8(%rbp)
	movl	%edx, %edi
	movq	%rcx, %rsi
	leaq	"??_7exception@std@@6B@"(%rip), %rax
	movq	%rax, (%rcx)
	addq	$8, %rcx
.Ltmp38:
	callq	__std_exception_destroy
.Ltmp39:
# %bb.1:
	testl	%edi, %edi
	je	.LBB17_3
# %bb.2:
	movq	%rsi, %rcx
	callq	"??3@YAXPEAX@Z"
.LBB17_3:
	movq	%rsi, %rax
	addq	$48, %rsp
	popq	%rdi
	popq	%rsi
	popq	%rbp
	retq
	.seh_handlerdata
	.long	("$cppxdata$??_Gexception@std@@UEAAPEAXI@Z")@IMGREL
	.section	.text,"xr",discard,"??_Gexception@std@@UEAAPEAXI@Z"
	.seh_endproc
	.def	"?dtor$4@?0???_Gexception@std@@UEAAPEAXI@Z@4HA";
	.scl	3;
	.type	32;
	.endef
	.p2align	4, 0x90
"?dtor$4@?0???_Gexception@std@@UEAAPEAXI@Z@4HA":
.seh_proc "?dtor$4@?0???_Gexception@std@@UEAAPEAXI@Z@4HA"
.LBB17_4:
	movq	%rdx, 16(%rsp)
	pushq	%rbp
	.seh_pushreg %rbp
	pushq	%rsi
	.seh_pushreg %rsi
	pushq	%rdi
	.seh_pushreg %rdi
	subq	$32, %rsp
	.seh_stackalloc 32
	leaq	48(%rdx), %rbp
	.seh_endprologue
	callq	__std_terminate
	int3
.Lfunc_end10:
	.seh_handlerdata
	.section	.text,"xr",discard,"??_Gexception@std@@UEAAPEAXI@Z"
	.seh_endproc
	.section	.xdata,"dr",associative,"??_Gexception@std@@UEAAPEAXI@Z"
	.p2align	2, 0x0
"$cppxdata$??_Gexception@std@@UEAAPEAXI@Z":
	.long	429065506                       # MagicNumber
	.long	1                               # MaxState
	.long	("$stateUnwindMap$??_Gexception@std@@UEAAPEAXI@Z")@IMGREL # UnwindMap
	.long	0                               # NumTryBlocks
	.long	0                               # TryBlockMap
	.long	3                               # IPMapEntries
	.long	("$ip2state$??_Gexception@std@@UEAAPEAXI@Z")@IMGREL # IPToStateXData
	.long	40                              # UnwindHelp
	.long	0                               # ESTypeList
	.long	1                               # EHFlags
"$stateUnwindMap$??_Gexception@std@@UEAAPEAXI@Z":
	.long	-1                              # ToState
	.long	"?dtor$4@?0???_Gexception@std@@UEAAPEAXI@Z@4HA"@IMGREL # Action
"$ip2state$??_Gexception@std@@UEAAPEAXI@Z":
	.long	.Lfunc_begin10@IMGREL           # IP
	.long	-1                              # ToState
	.long	.Ltmp38@IMGREL+1                # IP
	.long	0                               # ToState
	.long	.Ltmp39@IMGREL+1                # IP
	.long	-1                              # ToState
	.section	.text,"xr",discard,"??_Gexception@std@@UEAAPEAXI@Z"
                                        # -- End function
	.def	"?_Vprint_unicode_impl@std@@YAXW4_Add_newline@1@QEAU_iobuf@@V?$basic_string_view@DU?$char_traits@D@std@@@1@V?$basic_format_args@V?$basic_format_context@V?$back_insert_iterator@V?$_Fmt_buffer@D@std@@@std@@D@std@@@1@@Z";
	.scl	2;
	.type	32;
	.endef
	.section	.text,"xr",discard,"?_Vprint_unicode_impl@std@@YAXW4_Add_newline@1@QEAU_iobuf@@V?$basic_string_view@DU?$char_traits@D@std@@@1@V?$basic_format_args@V?$basic_format_context@V?$back_insert_iterator@V?$_Fmt_buffer@D@std@@@std@@D@std@@@1@@Z"
	.globl	"?_Vprint_unicode_impl@std@@YAXW4_Add_newline@1@QEAU_iobuf@@V?$basic_string_view@DU?$char_traits@D@std@@@1@V?$basic_format_args@V?$basic_format_context@V?$back_insert_iterator@V?$_Fmt_buffer@D@std@@@std@@D@std@@@1@@Z" # -- Begin function ?_Vprint_unicode_impl@std@@YAXW4_Add_newline@1@QEAU_iobuf@@V?$basic_string_view@DU?$char_traits@D@std@@@1@V?$basic_format_args@V?$basic_format_context@V?$back_insert_iterator@V?$_Fmt_buffer@D@std@@@std@@D@std@@@1@@Z
	.p2align	4, 0x90
"?_Vprint_unicode_impl@std@@YAXW4_Add_newline@1@QEAU_iobuf@@V?$basic_string_view@DU?$char_traits@D@std@@@1@V?$basic_format_args@V?$basic_format_context@V?$back_insert_iterator@V?$_Fmt_buffer@D@std@@@std@@D@std@@@1@@Z": # @"?_Vprint_unicode_impl@std@@YAXW4_Add_newline@1@QEAU_iobuf@@V?$basic_string_view@DU?$char_traits@D@std@@@1@V?$basic_format_args@V?$basic_format_context@V?$back_insert_iterator@V?$_Fmt_buffer@D@std@@@std@@D@std@@@1@@Z"
.Lfunc_begin11:
.seh_proc "?_Vprint_unicode_impl@std@@YAXW4_Add_newline@1@QEAU_iobuf@@V?$basic_string_view@DU?$char_traits@D@std@@@1@V?$basic_format_args@V?$basic_format_context@V?$back_insert_iterator@V?$_Fmt_buffer@D@std@@@std@@D@std@@@1@@Z"
	.seh_handler __CxxFrameHandler3, @unwind, @except
# %bb.0:
	pushq	%rbp
	.seh_pushreg %rbp
	pushq	%r15
	.seh_pushreg %r15
	pushq	%r14
	.seh_pushreg %r14
	pushq	%r13
	.seh_pushreg %r13
	pushq	%r12
	.seh_pushreg %r12
	pushq	%rsi
	.seh_pushreg %rsi
	pushq	%rdi
	.seh_pushreg %rdi
	pushq	%rbx
	.seh_pushreg %rbx
	subq	$136, %rsp
	.seh_stackalloc 136
	leaq	128(%rsp), %rbp
	.seh_setframe %rbp, 128
	.seh_endprologue
	movq	$-2, (%rbp)
	movq	%rdx, %rsi
	movl	%ecx, %ebx
	movq	(%r9), %rdi
	movq	8(%r9), %r14
	movq	(%r8), %r15
	movq	8(%r8), %r12
	xorps	%xmm0, %xmm0
	movaps	%xmm0, -32(%rbp)
	movq	$0, -16(%rbp)
	movq	$15, -8(%rbp)
	testq	%rdi, %rdi
	je	.LBB18_1
# %bb.2:
	leaq	(%r14,%rdi,8), %rax
	addq	$8, %rax
	cmpq	$1, %rdi
	jne	.LBB18_4
# %bb.3:
	xorl	%ecx, %ecx
	xorl	%edx, %edx
.LBB18_14:
	testb	$1, %dil
	je	.LBB18_20
# %bb.15:
	movq	(%r14,%rcx,8), %rcx
	movq	%rcx, %r9
	shrq	$60, %r9
	cmpb	$11, %r9b
	je	.LBB18_18
# %bb.16:
	movl	$8, %r8d
	cmpl	$12, %r9d
	jne	.LBB18_19
# %bb.17:
	movabsq	$1152921504606846975, %r8       # imm = 0xFFFFFFFFFFFFFFF
	andq	%r8, %rcx
	movq	(%rax,%rcx), %r8
	jmp	.LBB18_19
.LBB18_1:
	xorl	%edx, %edx
.LBB18_20:
	addq	%r12, %rdx
	cmpq	$16, %rdx
	jae	.LBB18_21
	jmp	.LBB18_23
.LBB18_4:
	movq	%rdi, %r8
	andq	$-2, %r8
	xorl	%ecx, %ecx
	movabsq	$1152921504606846975, %r9       # imm = 0xFFFFFFFFFFFFFFF
	xorl	%edx, %edx
	jmp	.LBB18_5
	.p2align	4, 0x90
.LBB18_12:                              #   in Loop: Header=BB18_5 Depth=1
	movl	$32, %r11d
.LBB18_13:                              #   in Loop: Header=BB18_5 Depth=1
	addq	%r11, %rdx
	addq	$2, %rcx
	cmpq	%rcx, %r8
	je	.LBB18_14
.LBB18_5:                               # =>This Inner Loop Header: Depth=1
	movq	(%r14,%rcx,8), %r10
	movq	%r10, %r11
	shrq	$60, %r11
	cmpb	$12, %r11b
	je	.LBB18_8
# %bb.6:                                #   in Loop: Header=BB18_5 Depth=1
	movl	$8, %r10d
	cmpl	$11, %r11d
	jne	.LBB18_9
# %bb.7:                                #   in Loop: Header=BB18_5 Depth=1
	movl	$32, %r10d
	jmp	.LBB18_9
	.p2align	4, 0x90
.LBB18_8:                               #   in Loop: Header=BB18_5 Depth=1
	andq	%r9, %r10
	movq	(%rax,%r10), %r10
.LBB18_9:                               #   in Loop: Header=BB18_5 Depth=1
	addq	%r10, %rdx
	movq	8(%r14,%rcx,8), %r10
	movq	%r10, %r13
	shrq	$60, %r13
	cmpb	$11, %r13b
	je	.LBB18_12
# %bb.10:                               #   in Loop: Header=BB18_5 Depth=1
	movl	$8, %r11d
	cmpl	$12, %r13d
	jne	.LBB18_13
# %bb.11:                               #   in Loop: Header=BB18_5 Depth=1
	andq	%r9, %r10
	movq	(%rax,%r10), %r11
	jmp	.LBB18_13
.LBB18_18:
	movl	$32, %r8d
.LBB18_19:
	addq	%r8, %rdx
	addq	%r12, %rdx
	cmpq	$16, %rdx
	jb	.LBB18_23
.LBB18_21:
.Ltmp40:
	leaq	-32(%rbp), %rcx
	callq	"??$_Reallocate_grow_by@V<lambda_1>@?0??reserve@?$basic_string@DU?$char_traits@D@std@@V?$allocator@D@2@@std@@QEAAX_K@Z@$$V@?$basic_string@DU?$char_traits@D@std@@V?$allocator@D@2@@std@@AEAAAEAV01@_KV<lambda_1>@?0??reserve@01@QEAAX0@Z@@Z"
.Ltmp41:
# %bb.22:
	movq	$0, -16(%rbp)
.LBB18_23:
	movq	%rdi, -80(%rbp)
	movq	%r14, -72(%rbp)
	movq	%r15, -64(%rbp)
	movq	%r12, -56(%rbp)
.Ltmp42:
	leaq	-88(%rbp), %rcx
	leaq	-32(%rbp), %rdi
	leaq	-64(%rbp), %r8
	leaq	-80(%rbp), %r9
	movq	%rdi, %rdx
	callq	"??$vformat_to@V?$back_insert_iterator@V?$basic_string@DU?$char_traits@D@std@@V?$allocator@D@2@@std@@@std@@@__p2286@std@@YA?AV?$back_insert_iterator@V?$basic_string@DU?$char_traits@D@std@@V?$allocator@D@2@@std@@@1@V21@V?$basic_string_view@DU?$char_traits@D@std@@@1@V?$basic_format_args@V?$basic_format_context@V?$back_insert_iterator@V?$_Fmt_buffer@D@std@@@std@@D@std@@@1@@Z"
.Ltmp43:
# %bb.24:
	testb	%bl, %bl
	je	.LBB18_31
# %bb.25:
	movq	-16(%rbp), %rax
	movq	-8(%rbp), %rcx
	cmpq	%rcx, %rax
	jae	.LBB18_30
# %bb.26:
	leaq	1(%rax), %rdx
	movq	%rdx, -16(%rbp)
	cmpq	$16, %rcx
	jb	.LBB18_27
# %bb.28:
	movq	-32(%rbp), %rcx
	movw	$10, (%rcx,%rax)
	movq	-16(%rbp), %rax
	cmpq	$16, -8(%rbp)
	jae	.LBB18_32
	jmp	.LBB18_33
.LBB18_30:
.Ltmp44:
	leaq	-32(%rbp), %rcx
	movl	$1, %edx
	movb	$10, %r9b
	callq	"??$_Reallocate_grow_by@V<lambda_1>@?0??push_back@?$basic_string@DU?$char_traits@D@std@@V?$allocator@D@2@@std@@QEAAXD@Z@D@?$basic_string@DU?$char_traits@D@std@@V?$allocator@D@2@@std@@AEAAAEAV01@_KV<lambda_1>@?0??push_back@01@QEAAXD@Z@D@Z"
.Ltmp45:
.LBB18_31:
	movq	-16(%rbp), %rax
	cmpq	$16, -8(%rbp)
	jb	.LBB18_33
.LBB18_32:
	movq	-32(%rbp), %rdi
.LBB18_33:
	movq	%rdi, -48(%rbp)
	movq	%rax, -40(%rbp)
.Ltmp46:
	leaq	-48(%rbp), %rdx
	movq	%rsi, %rcx
	callq	"?_Print_noformat_unicode@std@@YAXQEAU_iobuf@@V?$basic_string_view@DU?$char_traits@D@std@@@1@@Z"
.Ltmp47:
# %bb.34:
	movq	-8(%rbp), %rax
	cmpq	$16, %rax
	jb	.LBB18_42
# %bb.35:
	movq	-32(%rbp), %rcx
	leaq	1(%rax), %rdx
	cmpq	$4096, %rdx                     # imm = 0x1000
	jb	.LBB18_41
# %bb.36:
	movq	-8(%rcx), %r8
	addq	$-8, %rcx
	subq	%r8, %rcx
	cmpq	$32, %rcx
	jae	.LBB18_37
# %bb.40:
	addq	$40, %rax
	movq	%rax, %rdx
	movq	%r8, %rcx
.LBB18_41:
	callq	"??3@YAXPEAX_K@Z"
.LBB18_42:
	nop
	addq	$136, %rsp
	popq	%rbx
	popq	%rdi
	popq	%rsi
	popq	%r12
	popq	%r13
	popq	%r14
	popq	%r15
	popq	%rbp
	retq
.LBB18_27:
	leaq	-32(%rbp), %rcx
	movw	$10, (%rcx,%rax)
	movq	-16(%rbp), %rax
	cmpq	$16, -8(%rbp)
	jae	.LBB18_32
	jmp	.LBB18_33
.LBB18_37:
.Ltmp48:
	callq	_invalid_parameter_noinfo_noreturn
.Ltmp49:
# %bb.38:
	int3
	.seh_handlerdata
	.long	("$cppxdata$?_Vprint_unicode_impl@std@@YAXW4_Add_newline@1@QEAU_iobuf@@V?$basic_string_view@DU?$char_traits@D@std@@@1@V?$basic_format_args@V?$basic_format_context@V?$back_insert_iterator@V?$_Fmt_buffer@D@std@@@std@@D@std@@@1@@Z")@IMGREL
	.section	.text,"xr",discard,"?_Vprint_unicode_impl@std@@YAXW4_Add_newline@1@QEAU_iobuf@@V?$basic_string_view@DU?$char_traits@D@std@@@1@V?$basic_format_args@V?$basic_format_context@V?$back_insert_iterator@V?$_Fmt_buffer@D@std@@@std@@D@std@@@1@@Z"
	.seh_endproc
	.def	"?dtor$39@?0??_Vprint_unicode_impl@std@@YAXW4_Add_newline@1@QEAU_iobuf@@V?$basic_string_view@DU?$char_traits@D@std@@@1@V?$basic_format_args@V?$basic_format_context@V?$back_insert_iterator@V?$_Fmt_buffer@D@std@@@std@@D@std@@@1@@Z@4HA";
	.scl	3;
	.type	32;
	.endef
	.p2align	4, 0x90
"?dtor$39@?0??_Vprint_unicode_impl@std@@YAXW4_Add_newline@1@QEAU_iobuf@@V?$basic_string_view@DU?$char_traits@D@std@@@1@V?$basic_format_args@V?$basic_format_context@V?$back_insert_iterator@V?$_Fmt_buffer@D@std@@@std@@D@std@@@1@@Z@4HA":
.seh_proc "?dtor$39@?0??_Vprint_unicode_impl@std@@YAXW4_Add_newline@1@QEAU_iobuf@@V?$basic_string_view@DU?$char_traits@D@std@@@1@V?$basic_format_args@V?$basic_format_context@V?$back_insert_iterator@V?$_Fmt_buffer@D@std@@@std@@D@std@@@1@@Z@4HA"
.LBB18_39:
	movq	%rdx, 16(%rsp)
	pushq	%rbp
	.seh_pushreg %rbp
	pushq	%r15
	.seh_pushreg %r15
	pushq	%r14
	.seh_pushreg %r14
	pushq	%r13
	.seh_pushreg %r13
	pushq	%r12
	.seh_pushreg %r12
	pushq	%rsi
	.seh_pushreg %rsi
	pushq	%rdi
	.seh_pushreg %rdi
	pushq	%rbx
	.seh_pushreg %rbx
	subq	$40, %rsp
	.seh_stackalloc 40
	leaq	128(%rdx), %rbp
	.seh_endprologue
	callq	__std_terminate
	int3
	.seh_handlerdata
	.section	.text,"xr",discard,"?_Vprint_unicode_impl@std@@YAXW4_Add_newline@1@QEAU_iobuf@@V?$basic_string_view@DU?$char_traits@D@std@@@1@V?$basic_format_args@V?$basic_format_context@V?$back_insert_iterator@V?$_Fmt_buffer@D@std@@@std@@D@std@@@1@@Z"
	.seh_endproc
	.def	"?dtor$43@?0??_Vprint_unicode_impl@std@@YAXW4_Add_newline@1@QEAU_iobuf@@V?$basic_string_view@DU?$char_traits@D@std@@@1@V?$basic_format_args@V?$basic_format_context@V?$back_insert_iterator@V?$_Fmt_buffer@D@std@@@std@@D@std@@@1@@Z@4HA";
	.scl	3;
	.type	32;
	.endef
	.p2align	4, 0x90
"?dtor$43@?0??_Vprint_unicode_impl@std@@YAXW4_Add_newline@1@QEAU_iobuf@@V?$basic_string_view@DU?$char_traits@D@std@@@1@V?$basic_format_args@V?$basic_format_context@V?$back_insert_iterator@V?$_Fmt_buffer@D@std@@@std@@D@std@@@1@@Z@4HA":
.seh_proc "?dtor$43@?0??_Vprint_unicode_impl@std@@YAXW4_Add_newline@1@QEAU_iobuf@@V?$basic_string_view@DU?$char_traits@D@std@@@1@V?$basic_format_args@V?$basic_format_context@V?$back_insert_iterator@V?$_Fmt_buffer@D@std@@@std@@D@std@@@1@@Z@4HA"
.LBB18_43:
	movq	%rdx, 16(%rsp)
	pushq	%rbp
	.seh_pushreg %rbp
	pushq	%r15
	.seh_pushreg %r15
	pushq	%r14
	.seh_pushreg %r14
	pushq	%r13
	.seh_pushreg %r13
	pushq	%r12
	.seh_pushreg %r12
	pushq	%rsi
	.seh_pushreg %rsi
	pushq	%rdi
	.seh_pushreg %rdi
	pushq	%rbx
	.seh_pushreg %rbx
	subq	$40, %rsp
	.seh_stackalloc 40
	leaq	128(%rdx), %rbp
	.seh_endprologue
	leaq	-32(%rbp), %rcx
	callq	"??1?$basic_string@DU?$char_traits@D@std@@V?$allocator@D@2@@std@@QEAA@XZ"
	nop
	addq	$40, %rsp
	popq	%rbx
	popq	%rdi
	popq	%rsi
	popq	%r12
	popq	%r13
	popq	%r14
	popq	%r15
	popq	%rbp
	retq                                    # CLEANUPRET
	.seh_handlerdata
	.section	.text,"xr",discard,"?_Vprint_unicode_impl@std@@YAXW4_Add_newline@1@QEAU_iobuf@@V?$basic_string_view@DU?$char_traits@D@std@@@1@V?$basic_format_args@V?$basic_format_context@V?$back_insert_iterator@V?$_Fmt_buffer@D@std@@@std@@D@std@@@1@@Z"
	.seh_endproc
	.def	"?dtor$44@?0??_Vprint_unicode_impl@std@@YAXW4_Add_newline@1@QEAU_iobuf@@V?$basic_string_view@DU?$char_traits@D@std@@@1@V?$basic_format_args@V?$basic_format_context@V?$back_insert_iterator@V?$_Fmt_buffer@D@std@@@std@@D@std@@@1@@Z@4HA";
	.scl	3;
	.type	32;
	.endef
	.p2align	4, 0x90
"?dtor$44@?0??_Vprint_unicode_impl@std@@YAXW4_Add_newline@1@QEAU_iobuf@@V?$basic_string_view@DU?$char_traits@D@std@@@1@V?$basic_format_args@V?$basic_format_context@V?$back_insert_iterator@V?$_Fmt_buffer@D@std@@@std@@D@std@@@1@@Z@4HA":
.seh_proc "?dtor$44@?0??_Vprint_unicode_impl@std@@YAXW4_Add_newline@1@QEAU_iobuf@@V?$basic_string_view@DU?$char_traits@D@std@@@1@V?$basic_format_args@V?$basic_format_context@V?$back_insert_iterator@V?$_Fmt_buffer@D@std@@@std@@D@std@@@1@@Z@4HA"
.LBB18_44:
	movq	%rdx, 16(%rsp)
	pushq	%rbp
	.seh_pushreg %rbp
	pushq	%r15
	.seh_pushreg %r15
	pushq	%r14
	.seh_pushreg %r14
	pushq	%r13
	.seh_pushreg %r13
	pushq	%r12
	.seh_pushreg %r12
	pushq	%rsi
	.seh_pushreg %rsi
	pushq	%rdi
	.seh_pushreg %rdi
	pushq	%rbx
	.seh_pushreg %rbx
	subq	$40, %rsp
	.seh_stackalloc 40
	leaq	128(%rdx), %rbp
	.seh_endprologue
	leaq	-32(%rbp), %rcx
	callq	"??1?$basic_string@DU?$char_traits@D@std@@V?$allocator@D@2@@std@@QEAA@XZ"
	nop
	addq	$40, %rsp
	popq	%rbx
	popq	%rdi
	popq	%rsi
	popq	%r12
	popq	%r13
	popq	%r14
	popq	%r15
	popq	%rbp
	retq                                    # CLEANUPRET
.Lfunc_end11:
	.seh_handlerdata
	.section	.text,"xr",discard,"?_Vprint_unicode_impl@std@@YAXW4_Add_newline@1@QEAU_iobuf@@V?$basic_string_view@DU?$char_traits@D@std@@@1@V?$basic_format_args@V?$basic_format_context@V?$back_insert_iterator@V?$_Fmt_buffer@D@std@@@std@@D@std@@@1@@Z"
	.seh_endproc
	.section	.xdata,"dr",associative,"?_Vprint_unicode_impl@std@@YAXW4_Add_newline@1@QEAU_iobuf@@V?$basic_string_view@DU?$char_traits@D@std@@@1@V?$basic_format_args@V?$basic_format_context@V?$back_insert_iterator@V?$_Fmt_buffer@D@std@@@std@@D@std@@@1@@Z"
	.p2align	2, 0x0
"$cppxdata$?_Vprint_unicode_impl@std@@YAXW4_Add_newline@1@QEAU_iobuf@@V?$basic_string_view@DU?$char_traits@D@std@@@1@V?$basic_format_args@V?$basic_format_context@V?$back_insert_iterator@V?$_Fmt_buffer@D@std@@@std@@D@std@@@1@@Z":
	.long	429065506                       # MagicNumber
	.long	3                               # MaxState
	.long	("$stateUnwindMap$?_Vprint_unicode_impl@std@@YAXW4_Add_newline@1@QEAU_iobuf@@V?$basic_string_view@DU?$char_traits@D@std@@@1@V?$basic_format_args@V?$basic_format_context@V?$back_insert_iterator@V?$_Fmt_buffer@D@std@@@std@@D@std@@@1@@Z")@IMGREL # UnwindMap
	.long	0                               # NumTryBlocks
	.long	0                               # TryBlockMap
	.long	5                               # IPMapEntries
	.long	("$ip2state$?_Vprint_unicode_impl@std@@YAXW4_Add_newline@1@QEAU_iobuf@@V?$basic_string_view@DU?$char_traits@D@std@@@1@V?$basic_format_args@V?$basic_format_context@V?$back_insert_iterator@V?$_Fmt_buffer@D@std@@@std@@D@std@@@1@@Z")@IMGREL # IPToStateXData
	.long	128                             # UnwindHelp
	.long	0                               # ESTypeList
	.long	1                               # EHFlags
"$stateUnwindMap$?_Vprint_unicode_impl@std@@YAXW4_Add_newline@1@QEAU_iobuf@@V?$basic_string_view@DU?$char_traits@D@std@@@1@V?$basic_format_args@V?$basic_format_context@V?$back_insert_iterator@V?$_Fmt_buffer@D@std@@@std@@D@std@@@1@@Z":
	.long	-1                              # ToState
	.long	"?dtor$44@?0??_Vprint_unicode_impl@std@@YAXW4_Add_newline@1@QEAU_iobuf@@V?$basic_string_view@DU?$char_traits@D@std@@@1@V?$basic_format_args@V?$basic_format_context@V?$back_insert_iterator@V?$_Fmt_buffer@D@std@@@std@@D@std@@@1@@Z@4HA"@IMGREL # Action
	.long	-1                              # ToState
	.long	"?dtor$39@?0??_Vprint_unicode_impl@std@@YAXW4_Add_newline@1@QEAU_iobuf@@V?$basic_string_view@DU?$char_traits@D@std@@@1@V?$basic_format_args@V?$basic_format_context@V?$back_insert_iterator@V?$_Fmt_buffer@D@std@@@std@@D@std@@@1@@Z@4HA"@IMGREL # Action
	.long	-1                              # ToState
	.long	"?dtor$43@?0??_Vprint_unicode_impl@std@@YAXW4_Add_newline@1@QEAU_iobuf@@V?$basic_string_view@DU?$char_traits@D@std@@@1@V?$basic_format_args@V?$basic_format_context@V?$back_insert_iterator@V?$_Fmt_buffer@D@std@@@std@@D@std@@@1@@Z@4HA"@IMGREL # Action
"$ip2state$?_Vprint_unicode_impl@std@@YAXW4_Add_newline@1@QEAU_iobuf@@V?$basic_string_view@DU?$char_traits@D@std@@@1@V?$basic_format_args@V?$basic_format_context@V?$back_insert_iterator@V?$_Fmt_buffer@D@std@@@std@@D@std@@@1@@Z":
	.long	.Lfunc_begin11@IMGREL           # IP
	.long	-1                              # ToState
	.long	.Ltmp40@IMGREL+1                # IP
	.long	0                               # ToState
	.long	.Ltmp44@IMGREL+1                # IP
	.long	2                               # ToState
	.long	.Ltmp48@IMGREL+1                # IP
	.long	1                               # ToState
	.long	.Ltmp49@IMGREL+1                # IP
	.long	-1                              # ToState
	.section	.text,"xr",discard,"?_Vprint_unicode_impl@std@@YAXW4_Add_newline@1@QEAU_iobuf@@V?$basic_string_view@DU?$char_traits@D@std@@@1@V?$basic_format_args@V?$basic_format_context@V?$back_insert_iterator@V?$_Fmt_buffer@D@std@@@std@@D@std@@@1@@Z"
                                        # -- End function
	.def	"?_Print_noformat_unicode@std@@YAXQEAU_iobuf@@V?$basic_string_view@DU?$char_traits@D@std@@@1@@Z";
	.scl	2;
	.type	32;
	.endef
	.section	.text,"xr",discard,"?_Print_noformat_unicode@std@@YAXQEAU_iobuf@@V?$basic_string_view@DU?$char_traits@D@std@@@1@@Z"
	.globl	"?_Print_noformat_unicode@std@@YAXQEAU_iobuf@@V?$basic_string_view@DU?$char_traits@D@std@@@1@@Z" # -- Begin function ?_Print_noformat_unicode@std@@YAXQEAU_iobuf@@V?$basic_string_view@DU?$char_traits@D@std@@@1@@Z
	.p2align	4, 0x90
"?_Print_noformat_unicode@std@@YAXQEAU_iobuf@@V?$basic_string_view@DU?$char_traits@D@std@@@1@@Z": # @"?_Print_noformat_unicode@std@@YAXQEAU_iobuf@@V?$basic_string_view@DU?$char_traits@D@std@@@1@@Z"
.seh_proc "?_Print_noformat_unicode@std@@YAXQEAU_iobuf@@V?$basic_string_view@DU?$char_traits@D@std@@@1@@Z"
# %bb.0:
	pushq	%rsi
	.seh_pushreg %rsi
	pushq	%rdi
	.seh_pushreg %rdi
	subq	$56, %rsp
	.seh_stackalloc 56
	.seh_endprologue
	movq	%rdx, %rsi
	movq	%rcx, %rdi
	leaq	40(%rsp), %rcx
	movq	%rdi, %rdx
	callq	__std_get_unicode_console_handle_from_file_stream
	movl	48(%rsp), %ecx
	testl	%ecx, %ecx
	je	.LBB19_4
# %bb.1:
	cmpl	$50, %ecx
	je	.LBB19_6
# %bb.2:
	cmpl	$2, %ecx
	jne	.LBB19_9
# %bb.3:
	movq	(%rsi), %rcx
	movq	8(%rsi), %rsi
	movl	$1, %edx
	movq	%rsi, %r8
	movq	%rdi, %r9
	callq	fwrite
	cmpq	%rsi, %rax
	je	.LBB19_6
	jmp	.LBB19_7
.LBB19_4:
	movq	%rdi, %rcx
	callq	fflush
	testl	%eax, %eax
	jne	.LBB19_7
# %bb.5:
	movq	(%rsi), %rdx
	movq	8(%rsi), %r8
	movq	40(%rsp), %rcx
	callq	__std_print_to_unicode_console
	testl	%eax, %eax
	jne	.LBB19_8
.LBB19_6:
	addq	$56, %rsp
	popq	%rdi
	popq	%rsi
	retq
.LBB19_7:
	callq	_errno
	movl	(%rax), %ecx
	callq	"?_Throw_system_error@std@@YAXW4errc@1@@Z"
.LBB19_8:
	movl	%eax, %ecx
.LBB19_9:
	callq	"?_Throw_system_error_from_std_win_error@std@@YAXW4__std_win_error@@@Z"
	int3
	.seh_endproc
                                        # -- End function
	.def	"??$vformat_to@V?$back_insert_iterator@V?$basic_string@DU?$char_traits@D@std@@V?$allocator@D@2@@std@@@std@@@__p2286@std@@YA?AV?$back_insert_iterator@V?$basic_string@DU?$char_traits@D@std@@V?$allocator@D@2@@std@@@1@V21@V?$basic_string_view@DU?$char_traits@D@std@@@1@V?$basic_format_args@V?$basic_format_context@V?$back_insert_iterator@V?$_Fmt_buffer@D@std@@@std@@D@std@@@1@@Z";
	.scl	2;
	.type	32;
	.endef
	.section	.text,"xr",discard,"??$vformat_to@V?$back_insert_iterator@V?$basic_string@DU?$char_traits@D@std@@V?$allocator@D@2@@std@@@std@@@__p2286@std@@YA?AV?$back_insert_iterator@V?$basic_string@DU?$char_traits@D@std@@V?$allocator@D@2@@std@@@1@V21@V?$basic_string_view@DU?$char_traits@D@std@@@1@V?$basic_format_args@V?$basic_format_context@V?$back_insert_iterator@V?$_Fmt_buffer@D@std@@@std@@D@std@@@1@@Z"
	.globl	"??$vformat_to@V?$back_insert_iterator@V?$basic_string@DU?$char_traits@D@std@@V?$allocator@D@2@@std@@@std@@@__p2286@std@@YA?AV?$back_insert_iterator@V?$basic_string@DU?$char_traits@D@std@@V?$allocator@D@2@@std@@@1@V21@V?$basic_string_view@DU?$char_traits@D@std@@@1@V?$basic_format_args@V?$basic_format_context@V?$back_insert_iterator@V?$_Fmt_buffer@D@std@@@std@@D@std@@@1@@Z" # -- Begin function ??$vformat_to@V?$back_insert_iterator@V?$basic_string@DU?$char_traits@D@std@@V?$allocator@D@2@@std@@@std@@@__p2286@std@@YA?AV?$back_insert_iterator@V?$basic_string@DU?$char_traits@D@std@@V?$allocator@D@2@@std@@@1@V21@V?$basic_string_view@DU?$char_traits@D@std@@@1@V?$basic_format_args@V?$basic_format_context@V?$back_insert_iterator@V?$_Fmt_buffer@D@std@@@std@@D@std@@@1@@Z
	.p2align	4, 0x90
"??$vformat_to@V?$back_insert_iterator@V?$basic_string@DU?$char_traits@D@std@@V?$allocator@D@2@@std@@@std@@@__p2286@std@@YA?AV?$back_insert_iterator@V?$basic_string@DU?$char_traits@D@std@@V?$allocator@D@2@@std@@@1@V21@V?$basic_string_view@DU?$char_traits@D@std@@@1@V?$basic_format_args@V?$basic_format_context@V?$back_insert_iterator@V?$_Fmt_buffer@D@std@@@std@@D@std@@@1@@Z": # @"??$vformat_to@V?$back_insert_iterator@V?$basic_string@DU?$char_traits@D@std@@V?$allocator@D@2@@std@@@std@@@__p2286@std@@YA?AV?$back_insert_iterator@V?$basic_string@DU?$char_traits@D@std@@V?$allocator@D@2@@std@@@1@V21@V?$basic_string_view@DU?$char_traits@D@std@@@1@V?$basic_format_args@V?$basic_format_context@V?$back_insert_iterator@V?$_Fmt_buffer@D@std@@@std@@D@std@@@1@@Z"
.Lfunc_begin12:
.seh_proc "??$vformat_to@V?$back_insert_iterator@V?$basic_string@DU?$char_traits@D@std@@V?$allocator@D@2@@std@@@std@@@__p2286@std@@YA?AV?$back_insert_iterator@V?$basic_string@DU?$char_traits@D@std@@V?$allocator@D@2@@std@@@1@V21@V?$basic_string_view@DU?$char_traits@D@std@@@1@V?$basic_format_args@V?$basic_format_context@V?$back_insert_iterator@V?$_Fmt_buffer@D@std@@@std@@D@std@@@1@@Z"
	.seh_handler __CxxFrameHandler3, @unwind, @except
# %bb.0:
	pushq	%rbp
	.seh_pushreg %rbp
	pushq	%r15
	.seh_pushreg %r15
	pushq	%r14
	.seh_pushreg %r14
	pushq	%r12
	.seh_pushreg %r12
	pushq	%rsi
	.seh_pushreg %rsi
	pushq	%rdi
	.seh_pushreg %rdi
	pushq	%rbx
	.seh_pushreg %rbx
	subq	$448, %rsp                      # imm = 0x1C0
	.seh_stackalloc 448
	leaq	128(%rsp), %rbp
	.seh_setframe %rbp, 128
	.seh_endprologue
	movq	$-2, 312(%rbp)
	movq	%rcx, %rsi
	leaq	-32(%rbp), %rdi
	movq	%rdi, -64(%rbp)
	movq	$0, -56(%rbp)
	movq	$256, -48(%rbp)                 # imm = 0x100
	leaq	"??_7?$_Fmt_iterator_buffer@V?$back_insert_iterator@V?$basic_string@DU?$char_traits@D@std@@V?$allocator@D@2@@std@@@std@@DU_Fmt_buffer_traits@2@@std@@6B@"(%rip), %rax
	movq	%rax, -72(%rbp)
	movq	%rdx, -40(%rbp)
	movups	(%r9), %xmm0
	movups	%xmm0, 264(%rbp)
	movups	(%r8), %xmm0
	movaps	%xmm0, 224(%rbp)
	xorps	%xmm0, %xmm0
	movaps	%xmm0, 240(%rbp)
	leaq	-72(%rbp), %rax
	movq	%rax, 256(%rbp)
	movq	$0, 280(%rbp)
	movups	(%r8), %xmm0
	movaps	%xmm0, 288(%rbp)
.Ltmp50:
	leaq	288(%rbp), %rcx
	leaq	224(%rbp), %rdx
	callq	"??$_Parse_format_string@DAEAU?$_Format_handler@D@__p2286@std@@@std@@YAXV?$basic_string_view@DU?$char_traits@D@std@@@0@AEAU?$_Format_handler@D@__p2286@0@@Z"
.Ltmp51:
# %bb.1:
	movq	-56(%rbp), %rbx
	movq	-40(%rbp), %rcx
	movq	$0, -56(%rbp)
	movq	16(%rcx), %r9
	movq	24(%rcx), %rdx
	movq	%rdx, %rax
	subq	%r9, %rax
	cmpq	%rbx, %rax
	jae	.LBB20_2
# %bb.5:
.Ltmp52:
	movq	%rbx, 40(%rsp)
	movq	%rdi, 32(%rsp)
	movq	%rbx, %rdx
	callq	"??$_Reallocate_grow_by@V<lambda_1>@?0??insert@?$basic_string@DU?$char_traits@D@std@@V?$allocator@D@2@@std@@QEAAAEAV34@_KQEBD0@Z@_KPEBD_K@?$basic_string@DU?$char_traits@D@std@@V?$allocator@D@2@@std@@AEAAAEAV01@_KV<lambda_1>@?0??insert@01@QEAAAEAV01@0QEBD0@Z@_KPEBD3@Z"
.Ltmp53:
	jmp	.LBB20_6
.LBB20_2:
	movq	%rcx, %rax
	cmpq	$16, %rdx
	jb	.LBB20_4
# %bb.3:
	movq	(%rcx), %rax
.LBB20_4:
	leaq	(%rax,%r9), %r14
	xorl	%r15d, %r15d
	movq	%r14, %rdx
	subq	%rdi, %rdx
	cmovaq	%rdx, %r15
	leaq	(%rdi,%rbx), %r12
	cmovbq	%rbx, %r15
	cmpq	%r14, %r12
	cmovbeq	%rbx, %r15
	leaq	(%r9,%rbx), %rdx
	movq	%rdx, 16(%rcx)
	movzbl	(%rax,%r9), %eax
	movb	%al, (%rbx,%r14)
	movq	%r14, %rcx
	movq	%rdi, %rdx
	movq	%r15, %r8
	callq	memcpy
	subq	%r15, %rbx
	addq	%r15, %r12
	addq	%r14, %r15
	movq	%r15, %rcx
	movq	%r12, %rdx
	movq	%rbx, %r8
	callq	memcpy
.LBB20_6:
	movq	-40(%rbp), %rcx
	movq	%rcx, (%rsi)
	movq	-56(%rbp), %rbx
	testq	%rbx, %rbx
	je	.LBB20_13
# %bb.7:
	movq	$0, -56(%rbp)
	movq	16(%rcx), %r9
	movq	24(%rcx), %rdx
	movq	%rdx, %rax
	subq	%r9, %rax
	cmpq	%rbx, %rax
	jae	.LBB20_8
# %bb.12:
.Ltmp54:
	movq	%rbx, 40(%rsp)
	movq	%rdi, 32(%rsp)
	movq	%rbx, %rdx
	callq	"??$_Reallocate_grow_by@V<lambda_1>@?0??insert@?$basic_string@DU?$char_traits@D@std@@V?$allocator@D@2@@std@@QEAAAEAV34@_KQEBD0@Z@_KPEBD_K@?$basic_string@DU?$char_traits@D@std@@V?$allocator@D@2@@std@@AEAAAEAV01@_KV<lambda_1>@?0??insert@01@QEAAAEAV01@0QEBD0@Z@_KPEBD3@Z"
.Ltmp55:
	jmp	.LBB20_13
.LBB20_8:
	movq	%rcx, %rax
	cmpq	$16, %rdx
	jb	.LBB20_10
# %bb.9:
	movq	(%rcx), %rax
.LBB20_10:
	leaq	(%rax,%r9), %r14
	xorl	%r15d, %r15d
	movq	%r14, %rdx
	subq	%rdi, %rdx
	cmovaq	%rdx, %r15
	leaq	(%rdi,%rbx), %r12
	cmovbq	%rbx, %r15
	cmpq	%r14, %r12
	cmovbeq	%rbx, %r15
	leaq	(%r9,%rbx), %rdx
	movq	%rdx, 16(%rcx)
	movzbl	(%rax,%r9), %eax
	movb	%al, (%rbx,%r14)
	movq	%r14, %rcx
	movq	%rdi, %rdx
	movq	%r15, %r8
	callq	memcpy
	subq	%r15, %rbx
	addq	%r15, %r12
	addq	%r14, %r15
	movq	%r15, %rcx
	movq	%r12, %rdx
	movq	%rbx, %r8
	callq	memcpy
.LBB20_13:
	movq	%rsi, %rax
	addq	$448, %rsp                      # imm = 0x1C0
	popq	%rbx
	popq	%rdi
	popq	%rsi
	popq	%r12
	popq	%r14
	popq	%r15
	popq	%rbp
	retq
	.seh_handlerdata
	.long	("$cppxdata$??$vformat_to@V?$back_insert_iterator@V?$basic_string@DU?$char_traits@D@std@@V?$allocator@D@2@@std@@@std@@@__p2286@std@@YA?AV?$back_insert_iterator@V?$basic_string@DU?$char_traits@D@std@@V?$allocator@D@2@@std@@@1@V21@V?$basic_string_view@DU?$char_traits@D@std@@@1@V?$basic_format_args@V?$basic_format_context@V?$back_insert_iterator@V?$_Fmt_buffer@D@std@@@std@@D@std@@@1@@Z")@IMGREL
	.section	.text,"xr",discard,"??$vformat_to@V?$back_insert_iterator@V?$basic_string@DU?$char_traits@D@std@@V?$allocator@D@2@@std@@@std@@@__p2286@std@@YA?AV?$back_insert_iterator@V?$basic_string@DU?$char_traits@D@std@@V?$allocator@D@2@@std@@@1@V21@V?$basic_string_view@DU?$char_traits@D@std@@@1@V?$basic_format_args@V?$basic_format_context@V?$back_insert_iterator@V?$_Fmt_buffer@D@std@@@std@@D@std@@@1@@Z"
	.seh_endproc
	.def	"?dtor$11@?0???$vformat_to@V?$back_insert_iterator@V?$basic_string@DU?$char_traits@D@std@@V?$allocator@D@2@@std@@@std@@@__p2286@std@@YA?AV?$back_insert_iterator@V?$basic_string@DU?$char_traits@D@std@@V?$allocator@D@2@@std@@@1@V21@V?$basic_string_view@DU?$char_traits@D@std@@@1@V?$basic_format_args@V?$basic_format_context@V?$back_insert_iterator@V?$_Fmt_buffer@D@std@@@std@@D@std@@@1@@Z@4HA";
	.scl	3;
	.type	32;
	.endef
	.p2align	4, 0x90
"?dtor$11@?0???$vformat_to@V?$back_insert_iterator@V?$basic_string@DU?$char_traits@D@std@@V?$allocator@D@2@@std@@@std@@@__p2286@std@@YA?AV?$back_insert_iterator@V?$basic_string@DU?$char_traits@D@std@@V?$allocator@D@2@@std@@@1@V21@V?$basic_string_view@DU?$char_traits@D@std@@@1@V?$basic_format_args@V?$basic_format_context@V?$back_insert_iterator@V?$_Fmt_buffer@D@std@@@std@@D@std@@@1@@Z@4HA":
.seh_proc "?dtor$11@?0???$vformat_to@V?$back_insert_iterator@V?$basic_string@DU?$char_traits@D@std@@V?$allocator@D@2@@std@@@std@@@__p2286@std@@YA?AV?$back_insert_iterator@V?$basic_string@DU?$char_traits@D@std@@V?$allocator@D@2@@std@@@1@V21@V?$basic_string_view@DU?$char_traits@D@std@@@1@V?$basic_format_args@V?$basic_format_context@V?$back_insert_iterator@V?$_Fmt_buffer@D@std@@@std@@D@std@@@1@@Z@4HA"
.LBB20_11:
	movq	%rdx, 16(%rsp)
	pushq	%rbp
	.seh_pushreg %rbp
	pushq	%r15
	.seh_pushreg %r15
	pushq	%r14
	.seh_pushreg %r14
	pushq	%r12
	.seh_pushreg %r12
	pushq	%rsi
	.seh_pushreg %rsi
	pushq	%rdi
	.seh_pushreg %rdi
	pushq	%rbx
	.seh_pushreg %rbx
	subq	$48, %rsp
	.seh_stackalloc 48
	leaq	128(%rdx), %rbp
	.seh_endprologue
	callq	__std_terminate
	int3
	.seh_handlerdata
	.section	.text,"xr",discard,"??$vformat_to@V?$back_insert_iterator@V?$basic_string@DU?$char_traits@D@std@@V?$allocator@D@2@@std@@@std@@@__p2286@std@@YA?AV?$back_insert_iterator@V?$basic_string@DU?$char_traits@D@std@@V?$allocator@D@2@@std@@@1@V21@V?$basic_string_view@DU?$char_traits@D@std@@@1@V?$basic_format_args@V?$basic_format_context@V?$back_insert_iterator@V?$_Fmt_buffer@D@std@@@std@@D@std@@@1@@Z"
	.seh_endproc
	.def	"?dtor$14@?0???$vformat_to@V?$back_insert_iterator@V?$basic_string@DU?$char_traits@D@std@@V?$allocator@D@2@@std@@@std@@@__p2286@std@@YA?AV?$back_insert_iterator@V?$basic_string@DU?$char_traits@D@std@@V?$allocator@D@2@@std@@@1@V21@V?$basic_string_view@DU?$char_traits@D@std@@@1@V?$basic_format_args@V?$basic_format_context@V?$back_insert_iterator@V?$_Fmt_buffer@D@std@@@std@@D@std@@@1@@Z@4HA";
	.scl	3;
	.type	32;
	.endef
	.p2align	4, 0x90
"?dtor$14@?0???$vformat_to@V?$back_insert_iterator@V?$basic_string@DU?$char_traits@D@std@@V?$allocator@D@2@@std@@@std@@@__p2286@std@@YA?AV?$back_insert_iterator@V?$basic_string@DU?$char_traits@D@std@@V?$allocator@D@2@@std@@@1@V21@V?$basic_string_view@DU?$char_traits@D@std@@@1@V?$basic_format_args@V?$basic_format_context@V?$back_insert_iterator@V?$_Fmt_buffer@D@std@@@std@@D@std@@@1@@Z@4HA":
.seh_proc "?dtor$14@?0???$vformat_to@V?$back_insert_iterator@V?$basic_string@DU?$char_traits@D@std@@V?$allocator@D@2@@std@@@std@@@__p2286@std@@YA?AV?$back_insert_iterator@V?$basic_string@DU?$char_traits@D@std@@V?$allocator@D@2@@std@@@1@V21@V?$basic_string_view@DU?$char_traits@D@std@@@1@V?$basic_format_args@V?$basic_format_context@V?$back_insert_iterator@V?$_Fmt_buffer@D@std@@@std@@D@std@@@1@@Z@4HA"
.LBB20_14:
	movq	%rdx, 16(%rsp)
	pushq	%rbp
	.seh_pushreg %rbp
	pushq	%r15
	.seh_pushreg %r15
	pushq	%r14
	.seh_pushreg %r14
	pushq	%r12
	.seh_pushreg %r12
	pushq	%rsi
	.seh_pushreg %rsi
	pushq	%rdi
	.seh_pushreg %rdi
	pushq	%rbx
	.seh_pushreg %rbx
	subq	$48, %rsp
	.seh_stackalloc 48
	leaq	128(%rdx), %rbp
	.seh_endprologue
	leaq	-72(%rbp), %rcx
	callq	"??1?$_Fmt_iterator_buffer@V?$back_insert_iterator@V?$basic_string@DU?$char_traits@D@std@@V?$allocator@D@2@@std@@@std@@DU_Fmt_buffer_traits@2@@std@@QEAA@XZ"
	nop
	addq	$48, %rsp
	popq	%rbx
	popq	%rdi
	popq	%rsi
	popq	%r12
	popq	%r14
	popq	%r15
	popq	%rbp
	retq                                    # CLEANUPRET
.Lfunc_end12:
	.seh_handlerdata
	.section	.text,"xr",discard,"??$vformat_to@V?$back_insert_iterator@V?$basic_string@DU?$char_traits@D@std@@V?$allocator@D@2@@std@@@std@@@__p2286@std@@YA?AV?$back_insert_iterator@V?$basic_string@DU?$char_traits@D@std@@V?$allocator@D@2@@std@@@1@V21@V?$basic_string_view@DU?$char_traits@D@std@@@1@V?$basic_format_args@V?$basic_format_context@V?$back_insert_iterator@V?$_Fmt_buffer@D@std@@@std@@D@std@@@1@@Z"
	.seh_endproc
	.section	.xdata,"dr",associative,"??$vformat_to@V?$back_insert_iterator@V?$basic_string@DU?$char_traits@D@std@@V?$allocator@D@2@@std@@@std@@@__p2286@std@@YA?AV?$back_insert_iterator@V?$basic_string@DU?$char_traits@D@std@@V?$allocator@D@2@@std@@@1@V21@V?$basic_string_view@DU?$char_traits@D@std@@@1@V?$basic_format_args@V?$basic_format_context@V?$back_insert_iterator@V?$_Fmt_buffer@D@std@@@std@@D@std@@@1@@Z"
	.p2align	2, 0x0
"$cppxdata$??$vformat_to@V?$back_insert_iterator@V?$basic_string@DU?$char_traits@D@std@@V?$allocator@D@2@@std@@@std@@@__p2286@std@@YA?AV?$back_insert_iterator@V?$basic_string@DU?$char_traits@D@std@@V?$allocator@D@2@@std@@@1@V21@V?$basic_string_view@DU?$char_traits@D@std@@@1@V?$basic_format_args@V?$basic_format_context@V?$back_insert_iterator@V?$_Fmt_buffer@D@std@@@std@@D@std@@@1@@Z":
	.long	429065506                       # MagicNumber
	.long	2                               # MaxState
	.long	("$stateUnwindMap$??$vformat_to@V?$back_insert_iterator@V?$basic_string@DU?$char_traits@D@std@@V?$allocator@D@2@@std@@@std@@@__p2286@std@@YA?AV?$back_insert_iterator@V?$basic_string@DU?$char_traits@D@std@@V?$allocator@D@2@@std@@@1@V21@V?$basic_string_view@DU?$char_traits@D@std@@@1@V?$basic_format_args@V?$basic_format_context@V?$back_insert_iterator@V?$_Fmt_buffer@D@std@@@std@@D@std@@@1@@Z")@IMGREL # UnwindMap
	.long	0                               # NumTryBlocks
	.long	0                               # TryBlockMap
	.long	5                               # IPMapEntries
	.long	("$ip2state$??$vformat_to@V?$back_insert_iterator@V?$basic_string@DU?$char_traits@D@std@@V?$allocator@D@2@@std@@@std@@@__p2286@std@@YA?AV?$back_insert_iterator@V?$basic_string@DU?$char_traits@D@std@@V?$allocator@D@2@@std@@@1@V21@V?$basic_string_view@DU?$char_traits@D@std@@@1@V?$basic_format_args@V?$basic_format_context@V?$back_insert_iterator@V?$_Fmt_buffer@D@std@@@std@@D@std@@@1@@Z")@IMGREL # IPToStateXData
	.long	440                             # UnwindHelp
	.long	0                               # ESTypeList
	.long	1                               # EHFlags
"$stateUnwindMap$??$vformat_to@V?$back_insert_iterator@V?$basic_string@DU?$char_traits@D@std@@V?$allocator@D@2@@std@@@std@@@__p2286@std@@YA?AV?$back_insert_iterator@V?$basic_string@DU?$char_traits@D@std@@V?$allocator@D@2@@std@@@1@V21@V?$basic_string_view@DU?$char_traits@D@std@@@1@V?$basic_format_args@V?$basic_format_context@V?$back_insert_iterator@V?$_Fmt_buffer@D@std@@@std@@D@std@@@1@@Z":
	.long	-1                              # ToState
	.long	"?dtor$11@?0???$vformat_to@V?$back_insert_iterator@V?$basic_string@DU?$char_traits@D@std@@V?$allocator@D@2@@std@@@std@@@__p2286@std@@YA?AV?$back_insert_iterator@V?$basic_string@DU?$char_traits@D@std@@V?$allocator@D@2@@std@@@1@V21@V?$basic_string_view@DU?$char_traits@D@std@@@1@V?$basic_format_args@V?$basic_format_context@V?$back_insert_iterator@V?$_Fmt_buffer@D@std@@@std@@D@std@@@1@@Z@4HA"@IMGREL # Action
	.long	-1                              # ToState
	.long	"?dtor$14@?0???$vformat_to@V?$back_insert_iterator@V?$basic_string@DU?$char_traits@D@std@@V?$allocator@D@2@@std@@@std@@@__p2286@std@@YA?AV?$back_insert_iterator@V?$basic_string@DU?$char_traits@D@std@@V?$allocator@D@2@@std@@@1@V21@V?$basic_string_view@DU?$char_traits@D@std@@@1@V?$basic_format_args@V?$basic_format_context@V?$back_insert_iterator@V?$_Fmt_buffer@D@std@@@std@@D@std@@@1@@Z@4HA"@IMGREL # Action
"$ip2state$??$vformat_to@V?$back_insert_iterator@V?$basic_string@DU?$char_traits@D@std@@V?$allocator@D@2@@std@@@std@@@__p2286@std@@YA?AV?$back_insert_iterator@V?$basic_string@DU?$char_traits@D@std@@V?$allocator@D@2@@std@@@1@V21@V?$basic_string_view@DU?$char_traits@D@std@@@1@V?$basic_format_args@V?$basic_format_context@V?$back_insert_iterator@V?$_Fmt_buffer@D@std@@@std@@D@std@@@1@@Z":
	.long	.Lfunc_begin12@IMGREL           # IP
	.long	-1                              # ToState
	.long	.Ltmp50@IMGREL+1                # IP
	.long	1                               # ToState
	.long	.Ltmp53@IMGREL+1                # IP
	.long	-1                              # ToState
	.long	.Ltmp54@IMGREL+1                # IP
	.long	0                               # ToState
	.long	.Ltmp55@IMGREL+1                # IP
	.long	-1                              # ToState
	.section	.text,"xr",discard,"??$vformat_to@V?$back_insert_iterator@V?$basic_string@DU?$char_traits@D@std@@V?$allocator@D@2@@std@@@std@@@__p2286@std@@YA?AV?$back_insert_iterator@V?$basic_string@DU?$char_traits@D@std@@V?$allocator@D@2@@std@@@1@V21@V?$basic_string_view@DU?$char_traits@D@std@@@1@V?$basic_format_args@V?$basic_format_context@V?$back_insert_iterator@V?$_Fmt_buffer@D@std@@@std@@D@std@@@1@@Z"
                                        # -- End function
	.def	"??$_Reallocate_grow_by@V<lambda_1>@?0??reserve@?$basic_string@DU?$char_traits@D@std@@V?$allocator@D@2@@std@@QEAAX_K@Z@$$V@?$basic_string@DU?$char_traits@D@std@@V?$allocator@D@2@@std@@AEAAAEAV01@_KV<lambda_1>@?0??reserve@01@QEAAX0@Z@@Z";
	.scl	2;
	.type	32;
	.endef
	.section	.text,"xr",discard,"??$_Reallocate_grow_by@V<lambda_1>@?0??reserve@?$basic_string@DU?$char_traits@D@std@@V?$allocator@D@2@@std@@QEAAX_K@Z@$$V@?$basic_string@DU?$char_traits@D@std@@V?$allocator@D@2@@std@@AEAAAEAV01@_KV<lambda_1>@?0??reserve@01@QEAAX0@Z@@Z"
	.globl	"??$_Reallocate_grow_by@V<lambda_1>@?0??reserve@?$basic_string@DU?$char_traits@D@std@@V?$allocator@D@2@@std@@QEAAX_K@Z@$$V@?$basic_string@DU?$char_traits@D@std@@V?$allocator@D@2@@std@@AEAAAEAV01@_KV<lambda_1>@?0??reserve@01@QEAAX0@Z@@Z" # -- Begin function ??$_Reallocate_grow_by@V<lambda_1>@?0??reserve@?$basic_string@DU?$char_traits@D@std@@V?$allocator@D@2@@std@@QEAAX_K@Z@$$V@?$basic_string@DU?$char_traits@D@std@@V?$allocator@D@2@@std@@AEAAAEAV01@_KV<lambda_1>@?0??reserve@01@QEAAX0@Z@@Z
	.p2align	4, 0x90
"??$_Reallocate_grow_by@V<lambda_1>@?0??reserve@?$basic_string@DU?$char_traits@D@std@@V?$allocator@D@2@@std@@QEAAX_K@Z@$$V@?$basic_string@DU?$char_traits@D@std@@V?$allocator@D@2@@std@@AEAAAEAV01@_KV<lambda_1>@?0??reserve@01@QEAAX0@Z@@Z": # @"??$_Reallocate_grow_by@V<lambda_1>@?0??reserve@?$basic_string@DU?$char_traits@D@std@@V?$allocator@D@2@@std@@QEAAX_K@Z@$$V@?$basic_string@DU?$char_traits@D@std@@V?$allocator@D@2@@std@@AEAAAEAV01@_KV<lambda_1>@?0??reserve@01@QEAAX0@Z@@Z"
.Lfunc_begin13:
.seh_proc "??$_Reallocate_grow_by@V<lambda_1>@?0??reserve@?$basic_string@DU?$char_traits@D@std@@V?$allocator@D@2@@std@@QEAAX_K@Z@$$V@?$basic_string@DU?$char_traits@D@std@@V?$allocator@D@2@@std@@AEAAAEAV01@_KV<lambda_1>@?0??reserve@01@QEAAX0@Z@@Z"
	.seh_handler __CxxFrameHandler3, @unwind, @except
# %bb.0:
	pushq	%rbp
	.seh_pushreg %rbp
	pushq	%r15
	.seh_pushreg %r15
	pushq	%r14
	.seh_pushreg %r14
	pushq	%r12
	.seh_pushreg %r12
	pushq	%rsi
	.seh_pushreg %rsi
	pushq	%rdi
	.seh_pushreg %rdi
	pushq	%rbx
	.seh_pushreg %rbx
	subq	$48, %rsp
	.seh_stackalloc 48
	leaq	48(%rsp), %rbp
	.seh_setframe %rbp, 48
	.seh_endprologue
	movq	$-2, -8(%rbp)
	movq	16(%rcx), %rdi
	movabsq	$9223372036854775807, %r12      # imm = 0x7FFFFFFFFFFFFFFF
	movq	%rdi, %rax
	xorq	%r12, %rax
	cmpq	%rdx, %rax
	jb	.LBB21_19
# %bb.1:
	movq	%rdx, %rbx
	movq	%rcx, %rsi
	addq	%rdi, %rbx
	movq	24(%rcx), %r15
	movq	%rbx, %rax
	orq	$15, %rax
	movabsq	$-9223372036854775808, %rcx     # imm = 0x8000000000000000
	js	.LBB21_5
# %bb.2:
	movq	%r15, %rdx
	shrq	%rdx
	movq	%rdx, %r8
	xorq	%r12, %r8
	cmpq	%r15, %r8
	jb	.LBB21_5
# %bb.3:
	addq	%r15, %rdx
	cmpq	%rdx, %rax
	movq	%rdx, %r12
	cmovaq	%rax, %r12
	leaq	1(%r12), %rcx
	cmpq	$4096, %rcx                     # imm = 0x1000
	jb	.LBB21_6
# %bb.4:
	cmpq	$-39, %rcx
	jae	.LBB21_20
.LBB21_5:
	addq	$39, %rcx
	callq	"??2@YAPEAX_K@Z"
	leaq	39(%rax), %r14
	andq	$-32, %r14
	movq	%rax, -8(%r14)
.LBB21_9:
	movq	%rbx, 16(%rsi)
	movq	%r12, 24(%rsi)
	cmpq	$16, %r15
	jb	.LBB21_17
# %bb.10:
	movq	(%rsi), %rbx
	incq	%rdi
	movq	%r14, %rcx
	movq	%rbx, %rdx
	movq	%rdi, %r8
	callq	memcpy
	leaq	1(%r15), %rdx
	cmpq	$4096, %rdx                     # imm = 0x1000
	jb	.LBB21_16
# %bb.11:
	movq	-8(%rbx), %rax
	addq	$-8, %rbx
	subq	%rax, %rbx
	cmpq	$32, %rbx
	jae	.LBB21_12
# %bb.15:
	addq	$40, %r15
	movq	%r15, %rdx
	movq	%rax, %rbx
.LBB21_16:
	movq	%rbx, %rcx
	callq	"??3@YAXPEAX_K@Z"
	jmp	.LBB21_18
.LBB21_17:
	incq	%rdi
	movq	%r14, %rcx
	movq	%rsi, %rdx
	movq	%rdi, %r8
	callq	memcpy
.LBB21_18:
	movq	%r14, (%rsi)
	movq	%rsi, %rax
	addq	$48, %rsp
	popq	%rbx
	popq	%rdi
	popq	%rsi
	popq	%r12
	popq	%r14
	popq	%r15
	popq	%rbp
	retq
.LBB21_6:
	testq	%rcx, %rcx
	je	.LBB21_7
# %bb.8:
	callq	"??2@YAPEAX_K@Z"
	movq	%rax, %r14
	jmp	.LBB21_9
.LBB21_7:
	movq	$-1, %r12
	xorl	%r14d, %r14d
	jmp	.LBB21_9
.LBB21_19:
	callq	"?_Xlen_string@std@@YAXXZ"
.LBB21_12:
.Ltmp56:
	callq	_invalid_parameter_noinfo_noreturn
.Ltmp57:
# %bb.13:
.LBB21_20:
	callq	"?_Throw_bad_array_new_length@std@@YAXXZ"
	int3
	.seh_handlerdata
	.long	("$cppxdata$??$_Reallocate_grow_by@V<lambda_1>@?0??reserve@?$basic_string@DU?$char_traits@D@std@@V?$allocator@D@2@@std@@QEAAX_K@Z@$$V@?$basic_string@DU?$char_traits@D@std@@V?$allocator@D@2@@std@@AEAAAEAV01@_KV<lambda_1>@?0??reserve@01@QEAAX0@Z@@Z")@IMGREL
	.section	.text,"xr",discard,"??$_Reallocate_grow_by@V<lambda_1>@?0??reserve@?$basic_string@DU?$char_traits@D@std@@V?$allocator@D@2@@std@@QEAAX_K@Z@$$V@?$basic_string@DU?$char_traits@D@std@@V?$allocator@D@2@@std@@AEAAAEAV01@_KV<lambda_1>@?0??reserve@01@QEAAX0@Z@@Z"
	.seh_endproc
	.def	"?dtor$14@?0???$_Reallocate_grow_by@V<lambda_1>@?0??reserve@?$basic_string@DU?$char_traits@D@std@@V?$allocator@D@2@@std@@QEAAX_K@Z@$$V@?$basic_string@DU?$char_traits@D@std@@V?$allocator@D@2@@std@@AEAAAEAV01@_KV<lambda_1>@?0??reserve@01@QEAAX0@Z@@Z@4HA";
	.scl	3;
	.type	32;
	.endef
	.p2align	4, 0x90
"?dtor$14@?0???$_Reallocate_grow_by@V<lambda_1>@?0??reserve@?$basic_string@DU?$char_traits@D@std@@V?$allocator@D@2@@std@@QEAAX_K@Z@$$V@?$basic_string@DU?$char_traits@D@std@@V?$allocator@D@2@@std@@AEAAAEAV01@_KV<lambda_1>@?0??reserve@01@QEAAX0@Z@@Z@4HA":
.seh_proc "?dtor$14@?0???$_Reallocate_grow_by@V<lambda_1>@?0??reserve@?$basic_string@DU?$char_traits@D@std@@V?$allocator@D@2@@std@@QEAAX_K@Z@$$V@?$basic_string@DU?$char_traits@D@std@@V?$allocator@D@2@@std@@AEAAAEAV01@_KV<lambda_1>@?0??reserve@01@QEAAX0@Z@@Z@4HA"
.LBB21_14:
	movq	%rdx, 16(%rsp)
	pushq	%rbp
	.seh_pushreg %rbp
	pushq	%r15
	.seh_pushreg %r15
	pushq	%r14
	.seh_pushreg %r14
	pushq	%r12
	.seh_pushreg %r12
	pushq	%rsi
	.seh_pushreg %rsi
	pushq	%rdi
	.seh_pushreg %rdi
	pushq	%rbx
	.seh_pushreg %rbx
	subq	$32, %rsp
	.seh_stackalloc 32
	leaq	48(%rdx), %rbp
	.seh_endprologue
	callq	__std_terminate
	int3
.Lfunc_end13:
	.seh_handlerdata
	.section	.text,"xr",discard,"??$_Reallocate_grow_by@V<lambda_1>@?0??reserve@?$basic_string@DU?$char_traits@D@std@@V?$allocator@D@2@@std@@QEAAX_K@Z@$$V@?$basic_string@DU?$char_traits@D@std@@V?$allocator@D@2@@std@@AEAAAEAV01@_KV<lambda_1>@?0??reserve@01@QEAAX0@Z@@Z"
	.seh_endproc
	.section	.xdata,"dr",associative,"??$_Reallocate_grow_by@V<lambda_1>@?0??reserve@?$basic_string@DU?$char_traits@D@std@@V?$allocator@D@2@@std@@QEAAX_K@Z@$$V@?$basic_string@DU?$char_traits@D@std@@V?$allocator@D@2@@std@@AEAAAEAV01@_KV<lambda_1>@?0??reserve@01@QEAAX0@Z@@Z"
	.p2align	2, 0x0
"$cppxdata$??$_Reallocate_grow_by@V<lambda_1>@?0??reserve@?$basic_string@DU?$char_traits@D@std@@V?$allocator@D@2@@std@@QEAAX_K@Z@$$V@?$basic_string@DU?$char_traits@D@std@@V?$allocator@D@2@@std@@AEAAAEAV01@_KV<lambda_1>@?0??reserve@01@QEAAX0@Z@@Z":
	.long	429065506                       # MagicNumber
	.long	1                               # MaxState
	.long	("$stateUnwindMap$??$_Reallocate_grow_by@V<lambda_1>@?0??reserve@?$basic_string@DU?$char_traits@D@std@@V?$allocator@D@2@@std@@QEAAX_K@Z@$$V@?$basic_string@DU?$char_traits@D@std@@V?$allocator@D@2@@std@@AEAAAEAV01@_KV<lambda_1>@?0??reserve@01@QEAAX0@Z@@Z")@IMGREL # UnwindMap
	.long	0                               # NumTryBlocks
	.long	0                               # TryBlockMap
	.long	3                               # IPMapEntries
	.long	("$ip2state$??$_Reallocate_grow_by@V<lambda_1>@?0??reserve@?$basic_string@DU?$char_traits@D@std@@V?$allocator@D@2@@std@@QEAAX_K@Z@$$V@?$basic_string@DU?$char_traits@D@std@@V?$allocator@D@2@@std@@AEAAAEAV01@_KV<lambda_1>@?0??reserve@01@QEAAX0@Z@@Z")@IMGREL # IPToStateXData
	.long	40                              # UnwindHelp
	.long	0                               # ESTypeList
	.long	1                               # EHFlags
"$stateUnwindMap$??$_Reallocate_grow_by@V<lambda_1>@?0??reserve@?$basic_string@DU?$char_traits@D@std@@V?$allocator@D@2@@std@@QEAAX_K@Z@$$V@?$basic_string@DU?$char_traits@D@std@@V?$allocator@D@2@@std@@AEAAAEAV01@_KV<lambda_1>@?0??reserve@01@QEAAX0@Z@@Z":
	.long	-1                              # ToState
	.long	"?dtor$14@?0???$_Reallocate_grow_by@V<lambda_1>@?0??reserve@?$basic_string@DU?$char_traits@D@std@@V?$allocator@D@2@@std@@QEAAX_K@Z@$$V@?$basic_string@DU?$char_traits@D@std@@V?$allocator@D@2@@std@@AEAAAEAV01@_KV<lambda_1>@?0??reserve@01@QEAAX0@Z@@Z@4HA"@IMGREL # Action
"$ip2state$??$_Reallocate_grow_by@V<lambda_1>@?0??reserve@?$basic_string@DU?$char_traits@D@std@@V?$allocator@D@2@@std@@QEAAX_K@Z@$$V@?$basic_string@DU?$char_traits@D@std@@V?$allocator@D@2@@std@@AEAAAEAV01@_KV<lambda_1>@?0??reserve@01@QEAAX0@Z@@Z":
	.long	.Lfunc_begin13@IMGREL           # IP
	.long	-1                              # ToState
	.long	.Ltmp56@IMGREL+1                # IP
	.long	0                               # ToState
	.long	.Ltmp57@IMGREL+1                # IP
	.long	-1                              # ToState
	.section	.text,"xr",discard,"??$_Reallocate_grow_by@V<lambda_1>@?0??reserve@?$basic_string@DU?$char_traits@D@std@@V?$allocator@D@2@@std@@QEAAX_K@Z@$$V@?$basic_string@DU?$char_traits@D@std@@V?$allocator@D@2@@std@@AEAAAEAV01@_KV<lambda_1>@?0??reserve@01@QEAAX0@Z@@Z"
                                        # -- End function
	.def	"??$_Parse_format_string@DAEAU?$_Format_handler@D@__p2286@std@@@std@@YAXV?$basic_string_view@DU?$char_traits@D@std@@@0@AEAU?$_Format_handler@D@__p2286@0@@Z";
	.scl	2;
	.type	32;
	.endef
	.section	.text,"xr",discard,"??$_Parse_format_string@DAEAU?$_Format_handler@D@__p2286@std@@@std@@YAXV?$basic_string_view@DU?$char_traits@D@std@@@0@AEAU?$_Format_handler@D@__p2286@0@@Z"
	.globl	"??$_Parse_format_string@DAEAU?$_Format_handler@D@__p2286@std@@@std@@YAXV?$basic_string_view@DU?$char_traits@D@std@@@0@AEAU?$_Format_handler@D@__p2286@0@@Z" # -- Begin function ??$_Parse_format_string@DAEAU?$_Format_handler@D@__p2286@std@@@std@@YAXV?$basic_string_view@DU?$char_traits@D@std@@@0@AEAU?$_Format_handler@D@__p2286@0@@Z
	.p2align	4, 0x90
"??$_Parse_format_string@DAEAU?$_Format_handler@D@__p2286@std@@@std@@YAXV?$basic_string_view@DU?$char_traits@D@std@@@0@AEAU?$_Format_handler@D@__p2286@0@@Z": # @"??$_Parse_format_string@DAEAU?$_Format_handler@D@__p2286@std@@@std@@YAXV?$basic_string_view@DU?$char_traits@D@std@@@0@AEAU?$_Format_handler@D@__p2286@0@@Z"
.seh_proc "??$_Parse_format_string@DAEAU?$_Format_handler@D@__p2286@std@@@std@@YAXV?$basic_string_view@DU?$char_traits@D@std@@@0@AEAU?$_Format_handler@D@__p2286@0@@Z"
# %bb.0:
	pushq	%r15
	.seh_pushreg %r15
	pushq	%r14
	.seh_pushreg %r14
	pushq	%r12
	.seh_pushreg %r12
	pushq	%rsi
	.seh_pushreg %rsi
	pushq	%rdi
	.seh_pushreg %rdi
	pushq	%rbp
	.seh_pushreg %rbp
	pushq	%rbx
	.seh_pushreg %rbx
	subq	$32, %rsp
	.seh_stackalloc 32
	.seh_endprologue
	movq	8(%rcx), %rdi
	testq	%rdi, %rdi
	je	.LBB22_13
# %bb.1:
	movq	%rdx, %rsi
	movq	(%rcx), %r14
	addq	%r14, %rdi
	jmp	.LBB22_2
	.p2align	4, 0x90
.LBB22_3:                               #   in Loop: Header=BB22_2 Depth=1
	movq	%r14, %rbx
.LBB22_12:                              #   in Loop: Header=BB22_2 Depth=1
	movq	%rbx, %rcx
	movq	%rdi, %rdx
	movq	%rsi, %r8
	callq	"??$_Parse_replacement_field@DAEAU?$_Format_handler@D@__p2286@std@@@std@@YAPEBDPEBD0AEAU?$_Format_handler@D@__p2286@0@@Z"
	movq	%rax, %r14
	cmpq	%rdi, %rax
	je	.LBB22_13
.LBB22_2:                               # =>This Loop Header: Depth=1
                                        #     Child Loop BB22_5 Depth 2
                                        #       Child Loop BB22_18 Depth 3
                                        #     Child Loop BB22_7 Depth 2
	cmpb	$123, (%r14)
	je	.LBB22_3
# %bb.4:                                #   in Loop: Header=BB22_2 Depth=1
	movq	%r14, %rcx
	movq	%rdi, %rdx
	movb	$123, %r8b
	callq	__std_find_trivial_1
	movq	%rax, %rbx
	movq	%r14, %rcx
	movq	%rax, %rdx
	movb	$125, %r8b
	callq	__std_find_trivial_1
	jmp	.LBB22_5
	.p2align	4, 0x90
.LBB22_21:                              #   in Loop: Header=BB22_5 Depth=2
	movq	%r12, 32(%rsi)
	addq	$2, %r15
	movq	%r15, %rcx
	movq	%rbx, %rdx
	movb	$125, %r8b
	callq	__std_find_trivial_1
	movq	%r15, %r14
.LBB22_5:                               #   Parent Loop BB22_2 Depth=1
                                        # =>  This Loop Header: Depth=2
                                        #       Child Loop BB22_18 Depth 3
	movq	%rax, %r15
	cmpq	%rbx, %rax
	je	.LBB22_6
# %bb.14:                               #   in Loop: Header=BB22_5 Depth=2
	leaq	1(%r15), %rax
	cmpq	%rbx, %rax
	je	.LBB22_22
# %bb.15:                               #   in Loop: Header=BB22_5 Depth=2
	cmpb	$125, (%rax)
	jne	.LBB22_22
# %bb.16:                               #   in Loop: Header=BB22_5 Depth=2
	movq	32(%rsi), %r12
	cmpq	%rax, %r14
	je	.LBB22_21
# %bb.17:                               #   in Loop: Header=BB22_5 Depth=2
	decq	%r14
	jmp	.LBB22_18
	.p2align	4, 0x90
.LBB22_20:                              #   in Loop: Header=BB22_18 Depth=3
	movq	8(%r12), %rcx
	movq	%rdx, 16(%r12)
	movb	%bpl, (%rcx,%rax)
	incq	%r14
	cmpq	%r15, %r14
	je	.LBB22_21
.LBB22_18:                              #   Parent Loop BB22_2 Depth=1
                                        #     Parent Loop BB22_5 Depth=2
                                        # =>    This Inner Loop Header: Depth=3
	movzbl	1(%r14), %ebp
	movq	16(%r12), %rax
	leaq	1(%rax), %rdx
	cmpq	%rdx, 24(%r12)
	jae	.LBB22_20
# %bb.19:                               #   in Loop: Header=BB22_18 Depth=3
	movq	(%r12), %rax
	movq	%r12, %rcx
	callq	*(%rax)
	movq	16(%r12), %rax
	leaq	1(%rax), %rdx
	jmp	.LBB22_20
	.p2align	4, 0x90
.LBB22_6:                               #   in Loop: Header=BB22_2 Depth=1
	movq	32(%rsi), %r15
	jmp	.LBB22_7
	.p2align	4, 0x90
.LBB22_10:                              #   in Loop: Header=BB22_7 Depth=2
	movq	8(%r15), %rcx
	movq	%rdx, 16(%r15)
	movb	%bpl, (%rcx,%rax)
	incq	%r14
.LBB22_7:                               #   Parent Loop BB22_2 Depth=1
                                        # =>  This Inner Loop Header: Depth=2
	cmpq	%rbx, %r14
	je	.LBB22_11
# %bb.8:                                #   in Loop: Header=BB22_7 Depth=2
	movzbl	(%r14), %ebp
	movq	16(%r15), %rax
	leaq	1(%rax), %rdx
	cmpq	%rdx, 24(%r15)
	jae	.LBB22_10
# %bb.9:                                #   in Loop: Header=BB22_7 Depth=2
	movq	(%r15), %rax
	movq	%r15, %rcx
	callq	*(%rax)
	movq	16(%r15), %rax
	leaq	1(%rax), %rdx
	jmp	.LBB22_10
	.p2align	4, 0x90
.LBB22_11:                              #   in Loop: Header=BB22_2 Depth=1
	movq	%r15, 32(%rsi)
	cmpq	%rdi, %rbx
	jne	.LBB22_12
.LBB22_13:
	addq	$32, %rsp
	popq	%rbx
	popq	%rbp
	popq	%rdi
	popq	%rsi
	popq	%r12
	popq	%r14
	popq	%r15
	retq
.LBB22_22:
	leaq	"??_C@_0CA@EOADLFNL@Unmatched?5?8?$HN?8?5in?5format?5string?4?$AA@"(%rip), %rcx
	callq	"?_Throw_format_error@std@@YAXQEBD@Z"
	int3
	.seh_endproc
                                        # -- End function
	.def	"??1?$_Fmt_iterator_buffer@V?$back_insert_iterator@V?$basic_string@DU?$char_traits@D@std@@V?$allocator@D@2@@std@@@std@@DU_Fmt_buffer_traits@2@@std@@QEAA@XZ";
	.scl	2;
	.type	32;
	.endef
	.section	.text,"xr",discard,"??1?$_Fmt_iterator_buffer@V?$back_insert_iterator@V?$basic_string@DU?$char_traits@D@std@@V?$allocator@D@2@@std@@@std@@DU_Fmt_buffer_traits@2@@std@@QEAA@XZ"
	.globl	"??1?$_Fmt_iterator_buffer@V?$back_insert_iterator@V?$basic_string@DU?$char_traits@D@std@@V?$allocator@D@2@@std@@@std@@DU_Fmt_buffer_traits@2@@std@@QEAA@XZ" # -- Begin function ??1?$_Fmt_iterator_buffer@V?$back_insert_iterator@V?$basic_string@DU?$char_traits@D@std@@V?$allocator@D@2@@std@@@std@@DU_Fmt_buffer_traits@2@@std@@QEAA@XZ
	.p2align	4, 0x90
"??1?$_Fmt_iterator_buffer@V?$back_insert_iterator@V?$basic_string@DU?$char_traits@D@std@@V?$allocator@D@2@@std@@@std@@DU_Fmt_buffer_traits@2@@std@@QEAA@XZ": # @"??1?$_Fmt_iterator_buffer@V?$back_insert_iterator@V?$basic_string@DU?$char_traits@D@std@@V?$allocator@D@2@@std@@@std@@DU_Fmt_buffer_traits@2@@std@@QEAA@XZ"
.Lfunc_begin14:
.seh_proc "??1?$_Fmt_iterator_buffer@V?$back_insert_iterator@V?$basic_string@DU?$char_traits@D@std@@V?$allocator@D@2@@std@@@std@@DU_Fmt_buffer_traits@2@@std@@QEAA@XZ"
	.seh_handler __CxxFrameHandler3, @unwind, @except
# %bb.0:
	pushq	%rbp
	.seh_pushreg %rbp
	pushq	%r14
	.seh_pushreg %r14
	pushq	%rsi
	.seh_pushreg %rsi
	pushq	%rdi
	.seh_pushreg %rdi
	pushq	%rbx
	.seh_pushreg %rbx
	subq	$64, %rsp
	.seh_stackalloc 64
	leaq	64(%rsp), %rbp
	.seh_setframe %rbp, 64
	.seh_endprologue
	movq	$-2, -8(%rbp)
	movq	16(%rcx), %rsi
	testq	%rsi, %rsi
	je	.LBB23_6
# %bb.1:
	movq	%rcx, %rdx
	movq	$0, 16(%rcx)
	movq	32(%rcx), %rcx
	addq	$40, %rdx
	movq	16(%rcx), %r9
	movq	24(%rcx), %r8
	movq	%r8, %rax
	subq	%r9, %rax
	cmpq	%rsi, %rax
	jae	.LBB23_2
# %bb.5:
.Ltmp58:
	movq	%rsi, 40(%rsp)
	movq	%rdx, 32(%rsp)
	movq	%rsi, %rdx
	callq	"??$_Reallocate_grow_by@V<lambda_1>@?0??insert@?$basic_string@DU?$char_traits@D@std@@V?$allocator@D@2@@std@@QEAAAEAV34@_KQEBD0@Z@_KPEBD_K@?$basic_string@DU?$char_traits@D@std@@V?$allocator@D@2@@std@@AEAAAEAV01@_KV<lambda_1>@?0??insert@01@QEAAAEAV01@0QEBD0@Z@_KPEBD3@Z"
.Ltmp59:
.LBB23_6:
	nop
	addq	$64, %rsp
	popq	%rbx
	popq	%rdi
	popq	%rsi
	popq	%r14
	popq	%rbp
	retq
.LBB23_2:
	movq	%rcx, %rax
	cmpq	$16, %r8
	jb	.LBB23_4
# %bb.3:
	movq	(%rcx), %rax
.LBB23_4:
	leaq	(%rax,%r9), %rdi
	xorl	%ebx, %ebx
	movq	%rdi, %r8
	subq	%rdx, %r8
	cmovaq	%r8, %rbx
	leaq	(%rdx,%rsi), %r14
	cmovbq	%rsi, %rbx
	cmpq	%rdi, %r14
	cmovbeq	%rsi, %rbx
	leaq	(%r9,%rsi), %r8
	movq	%r8, 16(%rcx)
	movzbl	(%rax,%r9), %eax
	movb	%al, (%rsi,%rdi)
	movq	%rdi, %rcx
	movq	%rbx, %r8
	callq	memcpy
	subq	%rbx, %rsi
	addq	%rbx, %r14
	addq	%rdi, %rbx
	movq	%rbx, %rcx
	movq	%r14, %rdx
	movq	%rsi, %r8
	addq	$64, %rsp
	popq	%rbx
	popq	%rdi
	popq	%rsi
	popq	%r14
	popq	%rbp
	jmp	memcpy                          # TAILCALL
	.seh_handlerdata
	.long	("$cppxdata$??1?$_Fmt_iterator_buffer@V?$back_insert_iterator@V?$basic_string@DU?$char_traits@D@std@@V?$allocator@D@2@@std@@@std@@DU_Fmt_buffer_traits@2@@std@@QEAA@XZ")@IMGREL
	.section	.text,"xr",discard,"??1?$_Fmt_iterator_buffer@V?$back_insert_iterator@V?$basic_string@DU?$char_traits@D@std@@V?$allocator@D@2@@std@@@std@@DU_Fmt_buffer_traits@2@@std@@QEAA@XZ"
	.seh_endproc
	.def	"?dtor$7@?0???1?$_Fmt_iterator_buffer@V?$back_insert_iterator@V?$basic_string@DU?$char_traits@D@std@@V?$allocator@D@2@@std@@@std@@DU_Fmt_buffer_traits@2@@std@@QEAA@XZ@4HA";
	.scl	3;
	.type	32;
	.endef
	.p2align	4, 0x90
"?dtor$7@?0???1?$_Fmt_iterator_buffer@V?$back_insert_iterator@V?$basic_string@DU?$char_traits@D@std@@V?$allocator@D@2@@std@@@std@@DU_Fmt_buffer_traits@2@@std@@QEAA@XZ@4HA":
.seh_proc "?dtor$7@?0???1?$_Fmt_iterator_buffer@V?$back_insert_iterator@V?$basic_string@DU?$char_traits@D@std@@V?$allocator@D@2@@std@@@std@@DU_Fmt_buffer_traits@2@@std@@QEAA@XZ@4HA"
.LBB23_7:
	movq	%rdx, 16(%rsp)
	pushq	%rbp
	.seh_pushreg %rbp
	pushq	%r14
	.seh_pushreg %r14
	pushq	%rsi
	.seh_pushreg %rsi
	pushq	%rdi
	.seh_pushreg %rdi
	pushq	%rbx
	.seh_pushreg %rbx
	subq	$48, %rsp
	.seh_stackalloc 48
	leaq	64(%rdx), %rbp
	.seh_endprologue
	callq	__std_terminate
	int3
.Lfunc_end14:
	.seh_handlerdata
	.section	.text,"xr",discard,"??1?$_Fmt_iterator_buffer@V?$back_insert_iterator@V?$basic_string@DU?$char_traits@D@std@@V?$allocator@D@2@@std@@@std@@DU_Fmt_buffer_traits@2@@std@@QEAA@XZ"
	.seh_endproc
	.section	.xdata,"dr",associative,"??1?$_Fmt_iterator_buffer@V?$back_insert_iterator@V?$basic_string@DU?$char_traits@D@std@@V?$allocator@D@2@@std@@@std@@DU_Fmt_buffer_traits@2@@std@@QEAA@XZ"
	.p2align	2, 0x0
"$cppxdata$??1?$_Fmt_iterator_buffer@V?$back_insert_iterator@V?$basic_string@DU?$char_traits@D@std@@V?$allocator@D@2@@std@@@std@@DU_Fmt_buffer_traits@2@@std@@QEAA@XZ":
	.long	429065506                       # MagicNumber
	.long	1                               # MaxState
	.long	("$stateUnwindMap$??1?$_Fmt_iterator_buffer@V?$back_insert_iterator@V?$basic_string@DU?$char_traits@D@std@@V?$allocator@D@2@@std@@@std@@DU_Fmt_buffer_traits@2@@std@@QEAA@XZ")@IMGREL # UnwindMap
	.long	0                               # NumTryBlocks
	.long	0                               # TryBlockMap
	.long	3                               # IPMapEntries
	.long	("$ip2state$??1?$_Fmt_iterator_buffer@V?$back_insert_iterator@V?$basic_string@DU?$char_traits@D@std@@V?$allocator@D@2@@std@@@std@@DU_Fmt_buffer_traits@2@@std@@QEAA@XZ")@IMGREL # IPToStateXData
	.long	56                              # UnwindHelp
	.long	0                               # ESTypeList
	.long	1                               # EHFlags
"$stateUnwindMap$??1?$_Fmt_iterator_buffer@V?$back_insert_iterator@V?$basic_string@DU?$char_traits@D@std@@V?$allocator@D@2@@std@@@std@@DU_Fmt_buffer_traits@2@@std@@QEAA@XZ":
	.long	-1                              # ToState
	.long	"?dtor$7@?0???1?$_Fmt_iterator_buffer@V?$back_insert_iterator@V?$basic_string@DU?$char_traits@D@std@@V?$allocator@D@2@@std@@@std@@DU_Fmt_buffer_traits@2@@std@@QEAA@XZ@4HA"@IMGREL # Action
"$ip2state$??1?$_Fmt_iterator_buffer@V?$back_insert_iterator@V?$basic_string@DU?$char_traits@D@std@@V?$allocator@D@2@@std@@@std@@DU_Fmt_buffer_traits@2@@std@@QEAA@XZ":
	.long	.Lfunc_begin14@IMGREL           # IP
	.long	-1                              # ToState
	.long	.Ltmp58@IMGREL+1                # IP
	.long	0                               # ToState
	.long	.Ltmp59@IMGREL+1                # IP
	.long	-1                              # ToState
	.section	.text,"xr",discard,"??1?$_Fmt_iterator_buffer@V?$back_insert_iterator@V?$basic_string@DU?$char_traits@D@std@@V?$allocator@D@2@@std@@@std@@DU_Fmt_buffer_traits@2@@std@@QEAA@XZ"
                                        # -- End function
	.def	"?_Grow@?$_Fmt_iterator_buffer@V?$back_insert_iterator@V?$basic_string@DU?$char_traits@D@std@@V?$allocator@D@2@@std@@@std@@DU_Fmt_buffer_traits@2@@std@@EEAAX_K@Z";
	.scl	2;
	.type	32;
	.endef
	.section	.text,"xr",discard,"?_Grow@?$_Fmt_iterator_buffer@V?$back_insert_iterator@V?$basic_string@DU?$char_traits@D@std@@V?$allocator@D@2@@std@@@std@@DU_Fmt_buffer_traits@2@@std@@EEAAX_K@Z"
	.globl	"?_Grow@?$_Fmt_iterator_buffer@V?$back_insert_iterator@V?$basic_string@DU?$char_traits@D@std@@V?$allocator@D@2@@std@@@std@@DU_Fmt_buffer_traits@2@@std@@EEAAX_K@Z" # -- Begin function ?_Grow@?$_Fmt_iterator_buffer@V?$back_insert_iterator@V?$basic_string@DU?$char_traits@D@std@@V?$allocator@D@2@@std@@@std@@DU_Fmt_buffer_traits@2@@std@@EEAAX_K@Z
	.p2align	4, 0x90
"?_Grow@?$_Fmt_iterator_buffer@V?$back_insert_iterator@V?$basic_string@DU?$char_traits@D@std@@V?$allocator@D@2@@std@@@std@@DU_Fmt_buffer_traits@2@@std@@EEAAX_K@Z": # @"?_Grow@?$_Fmt_iterator_buffer@V?$back_insert_iterator@V?$basic_string@DU?$char_traits@D@std@@V?$allocator@D@2@@std@@@std@@DU_Fmt_buffer_traits@2@@std@@EEAAX_K@Z"
.seh_proc "?_Grow@?$_Fmt_iterator_buffer@V?$back_insert_iterator@V?$basic_string@DU?$char_traits@D@std@@V?$allocator@D@2@@std@@@std@@DU_Fmt_buffer_traits@2@@std@@EEAAX_K@Z"
# %bb.0:
	pushq	%r14
	.seh_pushreg %r14
	pushq	%rsi
	.seh_pushreg %rsi
	pushq	%rdi
	.seh_pushreg %rdi
	pushq	%rbx
	.seh_pushreg %rbx
	subq	$56, %rsp
	.seh_stackalloc 56
	.seh_endprologue
	cmpq	$256, 16(%rcx)                  # imm = 0x100
	jne	.LBB24_6
# %bb.1:
	movq	%rcx, %rsi
	movq	$0, 16(%rcx)
	leaq	40(%rcx), %rdx
	movq	32(%rcx), %rcx
	movq	16(%rcx), %r9
	movq	24(%rcx), %r8
	movq	%r8, %rax
	subq	%r9, %rax
	cmpq	$256, %rax                      # imm = 0x100
	jae	.LBB24_2
# %bb.5:
	movq	%rdx, 32(%rsp)
	movq	$256, 40(%rsp)                  # imm = 0x100
	movl	$256, %edx                      # imm = 0x100
	callq	"??$_Reallocate_grow_by@V<lambda_1>@?0??insert@?$basic_string@DU?$char_traits@D@std@@V?$allocator@D@2@@std@@QEAAAEAV34@_KQEBD0@Z@_KPEBD_K@?$basic_string@DU?$char_traits@D@std@@V?$allocator@D@2@@std@@AEAAAEAV01@_KV<lambda_1>@?0??insert@01@QEAAAEAV01@0QEBD0@Z@_KPEBD3@Z"
.LBB24_6:
	nop
	addq	$56, %rsp
	popq	%rbx
	popq	%rdi
	popq	%rsi
	popq	%r14
	retq
.LBB24_2:
	movq	%rcx, %rax
	cmpq	$16, %r8
	jb	.LBB24_4
# %bb.3:
	movq	(%rcx), %rax
.LBB24_4:
	leaq	(%rax,%r9), %rdi
	xorl	%ebx, %ebx
	movq	%rdi, %r8
	subq	%rdx, %r8
	cmovaq	%r8, %rbx
	leaq	296(%rsi), %r8
	movl	$256, %r14d                     # imm = 0x100
	cmovbq	%r14, %rbx
	cmpq	%rdi, %r8
	cmovbeq	%r14, %rbx
	leaq	256(%r9), %r8
	movq	%r8, 16(%rcx)
	movzbl	(%rax,%r9), %ecx
	movb	%cl, 256(%rax,%r9)
	movq	%rdi, %rcx
	movq	%rbx, %r8
	callq	memcpy
	subq	%rbx, %r14
	leaq	(%rsi,%rbx), %rdx
	addq	$296, %rdx                      # imm = 0x128
	addq	%rdi, %rbx
	movq	%rbx, %rcx
	movq	%r14, %r8
	addq	$56, %rsp
	popq	%rbx
	popq	%rdi
	popq	%rsi
	popq	%r14
	jmp	memcpy                          # TAILCALL
	.seh_endproc
                                        # -- End function
	.def	"??$_Reallocate_grow_by@V<lambda_1>@?0??insert@?$basic_string@DU?$char_traits@D@std@@V?$allocator@D@2@@std@@QEAAAEAV34@_KQEBD0@Z@_KPEBD_K@?$basic_string@DU?$char_traits@D@std@@V?$allocator@D@2@@std@@AEAAAEAV01@_KV<lambda_1>@?0??insert@01@QEAAAEAV01@0QEBD0@Z@_KPEBD3@Z";
	.scl	2;
	.type	32;
	.endef
	.section	.text,"xr",discard,"??$_Reallocate_grow_by@V<lambda_1>@?0??insert@?$basic_string@DU?$char_traits@D@std@@V?$allocator@D@2@@std@@QEAAAEAV34@_KQEBD0@Z@_KPEBD_K@?$basic_string@DU?$char_traits@D@std@@V?$allocator@D@2@@std@@AEAAAEAV01@_KV<lambda_1>@?0??insert@01@QEAAAEAV01@0QEBD0@Z@_KPEBD3@Z"
	.globl	"??$_Reallocate_grow_by@V<lambda_1>@?0??insert@?$basic_string@DU?$char_traits@D@std@@V?$allocator@D@2@@std@@QEAAAEAV34@_KQEBD0@Z@_KPEBD_K@?$basic_string@DU?$char_traits@D@std@@V?$allocator@D@2@@std@@AEAAAEAV01@_KV<lambda_1>@?0??insert@01@QEAAAEAV01@0QEBD0@Z@_KPEBD3@Z" # -- Begin function ??$_Reallocate_grow_by@V<lambda_1>@?0??insert@?$basic_string@DU?$char_traits@D@std@@V?$allocator@D@2@@std@@QEAAAEAV34@_KQEBD0@Z@_KPEBD_K@?$basic_string@DU?$char_traits@D@std@@V?$allocator@D@2@@std@@AEAAAEAV01@_KV<lambda_1>@?0??insert@01@QEAAAEAV01@0QEBD0@Z@_KPEBD3@Z
	.p2align	4, 0x90
"??$_Reallocate_grow_by@V<lambda_1>@?0??insert@?$basic_string@DU?$char_traits@D@std@@V?$allocator@D@2@@std@@QEAAAEAV34@_KQEBD0@Z@_KPEBD_K@?$basic_string@DU?$char_traits@D@std@@V?$allocator@D@2@@std@@AEAAAEAV01@_KV<lambda_1>@?0??insert@01@QEAAAEAV01@0QEBD0@Z@_KPEBD3@Z": # @"??$_Reallocate_grow_by@V<lambda_1>@?0??insert@?$basic_string@DU?$char_traits@D@std@@V?$allocator@D@2@@std@@QEAAAEAV34@_KQEBD0@Z@_KPEBD_K@?$basic_string@DU?$char_traits@D@std@@V?$allocator@D@2@@std@@AEAAAEAV01@_KV<lambda_1>@?0??insert@01@QEAAAEAV01@0QEBD0@Z@_KPEBD3@Z"
.Lfunc_begin15:
.seh_proc "??$_Reallocate_grow_by@V<lambda_1>@?0??insert@?$basic_string@DU?$char_traits@D@std@@V?$allocator@D@2@@std@@QEAAAEAV34@_KQEBD0@Z@_KPEBD_K@?$basic_string@DU?$char_traits@D@std@@V?$allocator@D@2@@std@@AEAAAEAV01@_KV<lambda_1>@?0??insert@01@QEAAAEAV01@0QEBD0@Z@_KPEBD3@Z"
	.seh_handler __CxxFrameHandler3, @unwind, @except
# %bb.0:
	pushq	%rbp
	.seh_pushreg %rbp
	pushq	%r15
	.seh_pushreg %r15
	pushq	%r14
	.seh_pushreg %r14
	pushq	%r13
	.seh_pushreg %r13
	pushq	%r12
	.seh_pushreg %r12
	pushq	%rsi
	.seh_pushreg %rsi
	pushq	%rdi
	.seh_pushreg %rdi
	pushq	%rbx
	.seh_pushreg %rbx
	subq	$40, %rsp
	.seh_stackalloc 40
	leaq	32(%rsp), %rbp
	.seh_setframe %rbp, 32
	.seh_endprologue
	movq	$-2, (%rbp)
	movq	16(%rcx), %rbx
	movabsq	$9223372036854775807, %r13      # imm = 0x7FFFFFFFFFFFFFFF
	movq	%rbx, %rax
	xorq	%r13, %rax
	cmpq	%rdx, %rax
	jb	.LBB25_19
# %bb.1:
	movq	%r9, %rdi
	movq	%rdx, %r15
	movq	%rcx, %rsi
	addq	%rbx, %r15
	movq	24(%rcx), %r12
	movq	%r15, %rax
	orq	$15, %rax
	movabsq	$-9223372036854775808, %rcx     # imm = 0x8000000000000000
	js	.LBB25_5
# %bb.2:
	movq	%r12, %rdx
	shrq	%rdx
	movq	%rdx, %r8
	xorq	%r13, %r8
	cmpq	%r12, %r8
	jb	.LBB25_5
# %bb.3:
	addq	%r12, %rdx
	cmpq	%rdx, %rax
	movq	%rdx, %r13
	cmovaq	%rax, %r13
	leaq	1(%r13), %rcx
	cmpq	$4096, %rcx                     # imm = 0x1000
	jb	.LBB25_6
# %bb.4:
	cmpq	$-39, %rcx
	jae	.LBB25_20
.LBB25_5:
	addq	$39, %rcx
	callq	"??2@YAPEAX_K@Z"
	leaq	39(%rax), %r14
	andq	$-32, %r14
	movq	%rax, -8(%r14)
.LBB25_9:
	movq	%r15, 16(%rsi)
	movq	%r13, 24(%rsi)
	cmpq	$16, %r12
	jb	.LBB25_17
# %bb.10:
	movq	(%rsi), %r15
	movq	%r14, %rcx
	movq	%r15, %rdx
	movq	%rdi, %r8
	callq	memcpy
	leaq	(%r14,%rdi), %r13
	movq	%r13, %rcx
	movq	112(%rbp), %rdx
	movq	120(%rbp), %r8
	callq	memcpy
	subq	%rdi, %rbx
	incq	%rbx
	addq	%r15, %rdi
	addq	120(%rbp), %r13
	movq	%r13, %rcx
	movq	%rdi, %rdx
	movq	%rbx, %r8
	callq	memcpy
	leaq	1(%r12), %rdx
	cmpq	$4096, %rdx                     # imm = 0x1000
	jb	.LBB25_16
# %bb.11:
	movq	-8(%r15), %rax
	addq	$-8, %r15
	subq	%rax, %r15
	cmpq	$32, %r15
	jae	.LBB25_12
# %bb.15:
	addq	$40, %r12
	movq	%r12, %rdx
	movq	%rax, %r15
.LBB25_16:
	movq	%r15, %rcx
	callq	"??3@YAXPEAX_K@Z"
	jmp	.LBB25_18
.LBB25_17:
	movq	%r14, %rcx
	movq	%rsi, %rdx
	movq	%rdi, %r8
	callq	memcpy
	leaq	(%r14,%rdi), %r15
	movq	%r15, %rcx
	movq	112(%rbp), %rdx
	movq	120(%rbp), %r12
	movq	%r12, %r8
	callq	memcpy
	subq	%rdi, %rbx
	incq	%rbx
	addq	%rsi, %rdi
	addq	%r12, %r15
	movq	%r15, %rcx
	movq	%rdi, %rdx
	movq	%rbx, %r8
	callq	memcpy
.LBB25_18:
	movq	%r14, (%rsi)
	movq	%rsi, %rax
	addq	$40, %rsp
	popq	%rbx
	popq	%rdi
	popq	%rsi
	popq	%r12
	popq	%r13
	popq	%r14
	popq	%r15
	popq	%rbp
	retq
.LBB25_6:
	testq	%rcx, %rcx
	je	.LBB25_7
# %bb.8:
	callq	"??2@YAPEAX_K@Z"
	movq	%rax, %r14
	jmp	.LBB25_9
.LBB25_7:
	movq	$-1, %r13
	xorl	%r14d, %r14d
	jmp	.LBB25_9
.LBB25_19:
	callq	"?_Xlen_string@std@@YAXXZ"
.LBB25_12:
.Ltmp60:
	callq	_invalid_parameter_noinfo_noreturn
.Ltmp61:
# %bb.13:
.LBB25_20:
	callq	"?_Throw_bad_array_new_length@std@@YAXXZ"
	int3
	.seh_handlerdata
	.long	("$cppxdata$??$_Reallocate_grow_by@V<lambda_1>@?0??insert@?$basic_string@DU?$char_traits@D@std@@V?$allocator@D@2@@std@@QEAAAEAV34@_KQEBD0@Z@_KPEBD_K@?$basic_string@DU?$char_traits@D@std@@V?$allocator@D@2@@std@@AEAAAEAV01@_KV<lambda_1>@?0??insert@01@QEAAAEAV01@0QEBD0@Z@_KPEBD3@Z")@IMGREL
	.section	.text,"xr",discard,"??$_Reallocate_grow_by@V<lambda_1>@?0??insert@?$basic_string@DU?$char_traits@D@std@@V?$allocator@D@2@@std@@QEAAAEAV34@_KQEBD0@Z@_KPEBD_K@?$basic_string@DU?$char_traits@D@std@@V?$allocator@D@2@@std@@AEAAAEAV01@_KV<lambda_1>@?0??insert@01@QEAAAEAV01@0QEBD0@Z@_KPEBD3@Z"
	.seh_endproc
	.def	"?dtor$14@?0???$_Reallocate_grow_by@V<lambda_1>@?0??insert@?$basic_string@DU?$char_traits@D@std@@V?$allocator@D@2@@std@@QEAAAEAV34@_KQEBD0@Z@_KPEBD_K@?$basic_string@DU?$char_traits@D@std@@V?$allocator@D@2@@std@@AEAAAEAV01@_KV<lambda_1>@?0??insert@01@QEAAAEAV01@0QEBD0@Z@_KPEBD3@Z@4HA";
	.scl	3;
	.type	32;
	.endef
	.p2align	4, 0x90
"?dtor$14@?0???$_Reallocate_grow_by@V<lambda_1>@?0??insert@?$basic_string@DU?$char_traits@D@std@@V?$allocator@D@2@@std@@QEAAAEAV34@_KQEBD0@Z@_KPEBD_K@?$basic_string@DU?$char_traits@D@std@@V?$allocator@D@2@@std@@AEAAAEAV01@_KV<lambda_1>@?0??insert@01@QEAAAEAV01@0QEBD0@Z@_KPEBD3@Z@4HA":
.seh_proc "?dtor$14@?0???$_Reallocate_grow_by@V<lambda_1>@?0??insert@?$basic_string@DU?$char_traits@D@std@@V?$allocator@D@2@@std@@QEAAAEAV34@_KQEBD0@Z@_KPEBD_K@?$basic_string@DU?$char_traits@D@std@@V?$allocator@D@2@@std@@AEAAAEAV01@_KV<lambda_1>@?0??insert@01@QEAAAEAV01@0QEBD0@Z@_KPEBD3@Z@4HA"
.LBB25_14:
	movq	%rdx, 16(%rsp)
	pushq	%rbp
	.seh_pushreg %rbp
	pushq	%r15
	.seh_pushreg %r15
	pushq	%r14
	.seh_pushreg %r14
	pushq	%r13
	.seh_pushreg %r13
	pushq	%r12
	.seh_pushreg %r12
	pushq	%rsi
	.seh_pushreg %rsi
	pushq	%rdi
	.seh_pushreg %rdi
	pushq	%rbx
	.seh_pushreg %rbx
	subq	$40, %rsp
	.seh_stackalloc 40
	leaq	32(%rdx), %rbp
	.seh_endprologue
	callq	__std_terminate
	int3
.Lfunc_end15:
	.seh_handlerdata
	.section	.text,"xr",discard,"??$_Reallocate_grow_by@V<lambda_1>@?0??insert@?$basic_string@DU?$char_traits@D@std@@V?$allocator@D@2@@std@@QEAAAEAV34@_KQEBD0@Z@_KPEBD_K@?$basic_string@DU?$char_traits@D@std@@V?$allocator@D@2@@std@@AEAAAEAV01@_KV<lambda_1>@?0??insert@01@QEAAAEAV01@0QEBD0@Z@_KPEBD3@Z"
	.seh_endproc
	.section	.xdata,"dr",associative,"??$_Reallocate_grow_by@V<lambda_1>@?0??insert@?$basic_string@DU?$char_traits@D@std@@V?$allocator@D@2@@std@@QEAAAEAV34@_KQEBD0@Z@_KPEBD_K@?$basic_string@DU?$char_traits@D@std@@V?$allocator@D@2@@std@@AEAAAEAV01@_KV<lambda_1>@?0??insert@01@QEAAAEAV01@0QEBD0@Z@_KPEBD3@Z"
	.p2align	2, 0x0
"$cppxdata$??$_Reallocate_grow_by@V<lambda_1>@?0??insert@?$basic_string@DU?$char_traits@D@std@@V?$allocator@D@2@@std@@QEAAAEAV34@_KQEBD0@Z@_KPEBD_K@?$basic_string@DU?$char_traits@D@std@@V?$allocator@D@2@@std@@AEAAAEAV01@_KV<lambda_1>@?0??insert@01@QEAAAEAV01@0QEBD0@Z@_KPEBD3@Z":
	.long	429065506                       # MagicNumber
	.long	1                               # MaxState
	.long	("$stateUnwindMap$??$_Reallocate_grow_by@V<lambda_1>@?0??insert@?$basic_string@DU?$char_traits@D@std@@V?$allocator@D@2@@std@@QEAAAEAV34@_KQEBD0@Z@_KPEBD_K@?$basic_string@DU?$char_traits@D@std@@V?$allocator@D@2@@std@@AEAAAEAV01@_KV<lambda_1>@?0??insert@01@QEAAAEAV01@0QEBD0@Z@_KPEBD3@Z")@IMGREL # UnwindMap
	.long	0                               # NumTryBlocks
	.long	0                               # TryBlockMap
	.long	3                               # IPMapEntries
	.long	("$ip2state$??$_Reallocate_grow_by@V<lambda_1>@?0??insert@?$basic_string@DU?$char_traits@D@std@@V?$allocator@D@2@@std@@QEAAAEAV34@_KQEBD0@Z@_KPEBD_K@?$basic_string@DU?$char_traits@D@std@@V?$allocator@D@2@@std@@AEAAAEAV01@_KV<lambda_1>@?0??insert@01@QEAAAEAV01@0QEBD0@Z@_KPEBD3@Z")@IMGREL # IPToStateXData
	.long	32                              # UnwindHelp
	.long	0                               # ESTypeList
	.long	1                               # EHFlags
"$stateUnwindMap$??$_Reallocate_grow_by@V<lambda_1>@?0??insert@?$basic_string@DU?$char_traits@D@std@@V?$allocator@D@2@@std@@QEAAAEAV34@_KQEBD0@Z@_KPEBD_K@?$basic_string@DU?$char_traits@D@std@@V?$allocator@D@2@@std@@AEAAAEAV01@_KV<lambda_1>@?0??insert@01@QEAAAEAV01@0QEBD0@Z@_KPEBD3@Z":
	.long	-1                              # ToState
	.long	"?dtor$14@?0???$_Reallocate_grow_by@V<lambda_1>@?0??insert@?$basic_string@DU?$char_traits@D@std@@V?$allocator@D@2@@std@@QEAAAEAV34@_KQEBD0@Z@_KPEBD_K@?$basic_string@DU?$char_traits@D@std@@V?$allocator@D@2@@std@@AEAAAEAV01@_KV<lambda_1>@?0??insert@01@QEAAAEAV01@0QEBD0@Z@_KPEBD3@Z@4HA"@IMGREL # Action
"$ip2state$??$_Reallocate_grow_by@V<lambda_1>@?0??insert@?$basic_string@DU?$char_traits@D@std@@V?$allocator@D@2@@std@@QEAAAEAV34@_KQEBD0@Z@_KPEBD_K@?$basic_string@DU?$char_traits@D@std@@V?$allocator@D@2@@std@@AEAAAEAV01@_KV<lambda_1>@?0??insert@01@QEAAAEAV01@0QEBD0@Z@_KPEBD3@Z":
	.long	.Lfunc_begin15@IMGREL           # IP
	.long	-1                              # ToState
	.long	.Ltmp60@IMGREL+1                # IP
	.long	0                               # ToState
	.long	.Ltmp61@IMGREL+1                # IP
	.long	-1                              # ToState
	.section	.text,"xr",discard,"??$_Reallocate_grow_by@V<lambda_1>@?0??insert@?$basic_string@DU?$char_traits@D@std@@V?$allocator@D@2@@std@@QEAAAEAV34@_KQEBD0@Z@_KPEBD_K@?$basic_string@DU?$char_traits@D@std@@V?$allocator@D@2@@std@@AEAAAEAV01@_KV<lambda_1>@?0??insert@01@QEAAAEAV01@0QEBD0@Z@_KPEBD3@Z"
                                        # -- End function
	.def	"?_Throw_format_error@std@@YAXQEBD@Z";
	.scl	2;
	.type	32;
	.endef
	.section	.text,"xr",discard,"?_Throw_format_error@std@@YAXQEBD@Z"
	.globl	"?_Throw_format_error@std@@YAXQEBD@Z" # -- Begin function ?_Throw_format_error@std@@YAXQEBD@Z
	.p2align	4, 0x90
"?_Throw_format_error@std@@YAXQEBD@Z":  # @"?_Throw_format_error@std@@YAXQEBD@Z"
.seh_proc "?_Throw_format_error@std@@YAXQEBD@Z"
# %bb.0:
	pushq	%rsi
	.seh_pushreg %rsi
	subq	$64, %rsp
	.seh_stackalloc 64
	.seh_endprologue
	movq	%rcx, %rdx
	leaq	40(%rsp), %rsi
	movq	%rsi, %rcx
	callq	"??0format_error@std@@QEAA@PEBD@Z"
	leaq	"_TI3?AVformat_error@std@@"(%rip), %rdx
	movq	%rsi, %rcx
	callq	_CxxThrowException
	int3
	.seh_endproc
                                        # -- End function
	.def	"??$_Parse_replacement_field@DAEAU?$_Format_handler@D@__p2286@std@@@std@@YAPEBDPEBD0AEAU?$_Format_handler@D@__p2286@0@@Z";
	.scl	2;
	.type	32;
	.endef
	.section	.text,"xr",discard,"??$_Parse_replacement_field@DAEAU?$_Format_handler@D@__p2286@std@@@std@@YAPEBDPEBD0AEAU?$_Format_handler@D@__p2286@0@@Z"
	.globl	"??$_Parse_replacement_field@DAEAU?$_Format_handler@D@__p2286@std@@@std@@YAPEBDPEBD0AEAU?$_Format_handler@D@__p2286@0@@Z" # -- Begin function ??$_Parse_replacement_field@DAEAU?$_Format_handler@D@__p2286@std@@@std@@YAPEBDPEBD0AEAU?$_Format_handler@D@__p2286@0@@Z
	.p2align	4, 0x90
"??$_Parse_replacement_field@DAEAU?$_Format_handler@D@__p2286@std@@@std@@YAPEBDPEBD0AEAU?$_Format_handler@D@__p2286@0@@Z": # @"??$_Parse_replacement_field@DAEAU?$_Format_handler@D@__p2286@std@@@std@@YAPEBDPEBD0AEAU?$_Format_handler@D@__p2286@0@@Z"
.seh_proc "??$_Parse_replacement_field@DAEAU?$_Format_handler@D@__p2286@std@@@std@@YAPEBDPEBD0AEAU?$_Format_handler@D@__p2286@0@@Z"
# %bb.0:
	pushq	%rsi
	.seh_pushreg %rsi
	pushq	%rdi
	.seh_pushreg %rdi
	pushq	%rbx
	.seh_pushreg %rbx
	subq	$48, %rsp
	.seh_stackalloc 48
	.seh_endprologue
	movq	%rcx, %rsi
	incq	%rsi
	cmpq	%rdx, %rsi
	je	.LBB27_18
# %bb.1:
	movq	%r8, %rdi
	movzbl	(%rsi), %eax
	cmpl	$123, %eax
	je	.LBB27_5
# %bb.2:
	cmpl	$125, %eax
	jne	.LBB27_9
# %bb.3:
	movq	24(%rdi), %rdx
	testq	%rdx, %rdx
	js	.LBB27_19
# %bb.4:
	leaq	1(%rdx), %rax
	movq	%rax, 24(%rdi)
	jmp	.LBB27_13
.LBB27_5:
	movq	32(%rdi), %rbx
	movq	16(%rbx), %rax
	leaq	1(%rax), %rdx
	cmpq	%rdx, 24(%rbx)
	jae	.LBB27_7
# %bb.6:
	movq	(%rbx), %rax
	movq	%rbx, %rcx
	callq	*(%rax)
	movq	16(%rbx), %rax
	leaq	1(%rax), %rdx
.LBB27_7:
	movq	8(%rbx), %rcx
	movq	%rdx, 16(%rbx)
	movb	$123, (%rcx,%rax)
	movq	%rbx, 32(%rdi)
	jmp	.LBB27_8
.LBB27_9:
	movq	%rdx, %rbx
	movq	%rdi, 32(%rsp)
	movq	$-1, 40(%rsp)
	leaq	32(%rsp), %r8
	movq	%rsi, %rcx
	callq	"??$_Parse_arg_id@DAEAU?$_Id_adapter@D@std@@@std@@YAPEBDPEBD0AEAU?$_Id_adapter@D@0@@Z"
	cmpq	%rbx, %rax
	je	.LBB27_17
# %bb.10:
	movq	%rax, %rsi
	movsbl	(%rax), %eax
	cmpl	$58, %eax
	je	.LBB27_14
# %bb.11:
	cmpl	$125, %eax
	jne	.LBB27_17
# %bb.12:
	movq	40(%rsp), %rdx
.LBB27_13:
	movq	%rdi, %rcx
	movq	%rsi, %r8
	callq	"?_On_replacement_field@?$_Format_handler@D@__p2286@std@@QEAAX_KPEBD@Z"
	jmp	.LBB27_8
.LBB27_14:
	incq	%rsi
	movq	40(%rsp), %rdx
	movq	%rdi, %rcx
	movq	%rsi, %r8
	movq	%rbx, %r9
	callq	"?_On_format_specs@?$_Format_handler@D@__p2286@std@@QEAAPEBD_KPEBD1@Z"
	cmpq	%rbx, %rax
	je	.LBB27_16
# %bb.15:
	movq	%rax, %rsi
	cmpb	$125, (%rax)
	jne	.LBB27_16
.LBB27_8:
	incq	%rsi
	movq	%rsi, %rax
	addq	$48, %rsp
	popq	%rbx
	popq	%rdi
	popq	%rsi
	retq
.LBB27_18:
	leaq	"??_C@_0BH@MCHHCMKF@Invalid?5format?5string?4?$AA@"(%rip), %rcx
	callq	"?_Throw_format_error@std@@YAXQEBD@Z"
.LBB27_17:
	leaq	"??_C@_0BO@FFAGMLDI@Missing?5?8?$HN?8?5in?5format?5string?4?$AA@"(%rip), %rcx
	callq	"?_Throw_format_error@std@@YAXQEBD@Z"
.LBB27_19:
	leaq	"??_C@_0DB@GIGELLBG@Can?5not?5switch?5from?5manual?5to?5au@"(%rip), %rcx
	callq	"?_Throw_format_error@std@@YAXQEBD@Z"
.LBB27_16:
	leaq	"??_C@_0BK@NMCHMIGI@Unknown?5format?5specifier?4?$AA@"(%rip), %rcx
	callq	"?_Throw_format_error@std@@YAXQEBD@Z"
	int3
	.seh_endproc
                                        # -- End function
	.def	"??0format_error@std@@QEAA@PEBD@Z";
	.scl	3;
	.type	32;
	.endef
	.section	.text,"xr",discard,"??0format_error@std@@QEAA@PEBD@Z"
	.p2align	4, 0x90                         # -- Begin function ??0format_error@std@@QEAA@PEBD@Z
"??0format_error@std@@QEAA@PEBD@Z":     # @"??0format_error@std@@QEAA@PEBD@Z"
.Lfunc_begin16:
.seh_proc "??0format_error@std@@QEAA@PEBD@Z"
	.seh_handler __CxxFrameHandler3, @unwind, @except
# %bb.0:
	pushq	%rbp
	.seh_pushreg %rbp
	pushq	%rsi
	.seh_pushreg %rsi
	subq	$56, %rsp
	.seh_stackalloc 56
	leaq	48(%rsp), %rbp
	.seh_setframe %rbp, 48
	.seh_endprologue
	movq	$-2, (%rbp)
	movq	%rcx, %rsi
	leaq	"??_7exception@std@@6B@"(%rip), %rax
	movq	%rax, (%rcx)
	leaq	8(%rcx), %rax
	xorps	%xmm0, %xmm0
	movups	%xmm0, 8(%rcx)
	movq	%rdx, -16(%rbp)
	movb	$1, -8(%rbp)
.Ltmp62:
	leaq	-16(%rbp), %rcx
	movq	%rax, %rdx
	callq	__std_exception_copy
.Ltmp63:
# %bb.1:
	leaq	"??_7format_error@std@@6B@"(%rip), %rax
	movq	%rax, (%rsi)
	movq	%rsi, %rax
	addq	$56, %rsp
	popq	%rsi
	popq	%rbp
	retq
	.seh_handlerdata
	.long	("$cppxdata$??0format_error@std@@QEAA@PEBD@Z")@IMGREL
	.section	.text,"xr",discard,"??0format_error@std@@QEAA@PEBD@Z"
	.seh_endproc
	.def	"?dtor$2@?0???0format_error@std@@QEAA@PEBD@Z@4HA";
	.scl	3;
	.type	32;
	.endef
	.p2align	4, 0x90
"?dtor$2@?0???0format_error@std@@QEAA@PEBD@Z@4HA":
.seh_proc "?dtor$2@?0???0format_error@std@@QEAA@PEBD@Z@4HA"
.LBB28_2:
	movq	%rdx, 16(%rsp)
	pushq	%rbp
	.seh_pushreg %rbp
	pushq	%rsi
	.seh_pushreg %rsi
	subq	$40, %rsp
	.seh_stackalloc 40
	leaq	48(%rdx), %rbp
	.seh_endprologue
	callq	__std_terminate
	int3
.Lfunc_end16:
	.seh_handlerdata
	.section	.text,"xr",discard,"??0format_error@std@@QEAA@PEBD@Z"
	.seh_endproc
	.section	.xdata,"dr",associative,"??0format_error@std@@QEAA@PEBD@Z"
	.p2align	2, 0x0
"$cppxdata$??0format_error@std@@QEAA@PEBD@Z":
	.long	429065506                       # MagicNumber
	.long	1                               # MaxState
	.long	("$stateUnwindMap$??0format_error@std@@QEAA@PEBD@Z")@IMGREL # UnwindMap
	.long	0                               # NumTryBlocks
	.long	0                               # TryBlockMap
	.long	3                               # IPMapEntries
	.long	("$ip2state$??0format_error@std@@QEAA@PEBD@Z")@IMGREL # IPToStateXData
	.long	48                              # UnwindHelp
	.long	0                               # ESTypeList
	.long	1                               # EHFlags
"$stateUnwindMap$??0format_error@std@@QEAA@PEBD@Z":
	.long	-1                              # ToState
	.long	"?dtor$2@?0???0format_error@std@@QEAA@PEBD@Z@4HA"@IMGREL # Action
"$ip2state$??0format_error@std@@QEAA@PEBD@Z":
	.long	.Lfunc_begin16@IMGREL           # IP
	.long	-1                              # ToState
	.long	.Ltmp62@IMGREL+1                # IP
	.long	0                               # ToState
	.long	.Ltmp63@IMGREL+1                # IP
	.long	-1                              # ToState
	.section	.text,"xr",discard,"??0format_error@std@@QEAA@PEBD@Z"
                                        # -- End function
	.def	"??0format_error@std@@QEAA@AEBV01@@Z";
	.scl	2;
	.type	32;
	.endef
	.section	.text,"xr",discard,"??0format_error@std@@QEAA@AEBV01@@Z"
	.globl	"??0format_error@std@@QEAA@AEBV01@@Z" # -- Begin function ??0format_error@std@@QEAA@AEBV01@@Z
	.p2align	4, 0x90
"??0format_error@std@@QEAA@AEBV01@@Z":  # @"??0format_error@std@@QEAA@AEBV01@@Z"
.Lfunc_begin17:
.seh_proc "??0format_error@std@@QEAA@AEBV01@@Z"
	.seh_handler __CxxFrameHandler3, @unwind, @except
# %bb.0:
	pushq	%rbp
	.seh_pushreg %rbp
	pushq	%rsi
	.seh_pushreg %rsi
	subq	$40, %rsp
	.seh_stackalloc 40
	leaq	32(%rsp), %rbp
	.seh_setframe %rbp, 32
	.seh_endprologue
	movq	$-2, (%rbp)
	movq	%rcx, %rsi
	leaq	"??_7exception@std@@6B@"(%rip), %rax
	movq	%rax, (%rcx)
	leaq	8(%rcx), %rax
	xorps	%xmm0, %xmm0
	movups	%xmm0, 8(%rcx)
	leaq	8(%rdx), %rcx
.Ltmp64:
	movq	%rax, %rdx
	callq	__std_exception_copy
.Ltmp65:
# %bb.1:
	leaq	"??_7format_error@std@@6B@"(%rip), %rax
	movq	%rax, (%rsi)
	movq	%rsi, %rax
	addq	$40, %rsp
	popq	%rsi
	popq	%rbp
	retq
	.seh_handlerdata
	.long	("$cppxdata$??0format_error@std@@QEAA@AEBV01@@Z")@IMGREL
	.section	.text,"xr",discard,"??0format_error@std@@QEAA@AEBV01@@Z"
	.seh_endproc
	.def	"?dtor$2@?0???0format_error@std@@QEAA@AEBV01@@Z@4HA";
	.scl	3;
	.type	32;
	.endef
	.p2align	4, 0x90
"?dtor$2@?0???0format_error@std@@QEAA@AEBV01@@Z@4HA":
.seh_proc "?dtor$2@?0???0format_error@std@@QEAA@AEBV01@@Z@4HA"
.LBB29_2:
	movq	%rdx, 16(%rsp)
	pushq	%rbp
	.seh_pushreg %rbp
	pushq	%rsi
	.seh_pushreg %rsi
	subq	$40, %rsp
	.seh_stackalloc 40
	leaq	32(%rdx), %rbp
	.seh_endprologue
	callq	__std_terminate
	int3
.Lfunc_end17:
	.seh_handlerdata
	.section	.text,"xr",discard,"??0format_error@std@@QEAA@AEBV01@@Z"
	.seh_endproc
	.section	.xdata,"dr",associative,"??0format_error@std@@QEAA@AEBV01@@Z"
	.p2align	2, 0x0
"$cppxdata$??0format_error@std@@QEAA@AEBV01@@Z":
	.long	429065506                       # MagicNumber
	.long	1                               # MaxState
	.long	("$stateUnwindMap$??0format_error@std@@QEAA@AEBV01@@Z")@IMGREL # UnwindMap
	.long	0                               # NumTryBlocks
	.long	0                               # TryBlockMap
	.long	3                               # IPMapEntries
	.long	("$ip2state$??0format_error@std@@QEAA@AEBV01@@Z")@IMGREL # IPToStateXData
	.long	32                              # UnwindHelp
	.long	0                               # ESTypeList
	.long	1                               # EHFlags
"$stateUnwindMap$??0format_error@std@@QEAA@AEBV01@@Z":
	.long	-1                              # ToState
	.long	"?dtor$2@?0???0format_error@std@@QEAA@AEBV01@@Z@4HA"@IMGREL # Action
"$ip2state$??0format_error@std@@QEAA@AEBV01@@Z":
	.long	.Lfunc_begin17@IMGREL           # IP
	.long	-1                              # ToState
	.long	.Ltmp64@IMGREL+1                # IP
	.long	0                               # ToState
	.long	.Ltmp65@IMGREL+1                # IP
	.long	-1                              # ToState
	.section	.text,"xr",discard,"??0format_error@std@@QEAA@AEBV01@@Z"
                                        # -- End function
	.def	"??0runtime_error@std@@QEAA@AEBV01@@Z";
	.scl	2;
	.type	32;
	.endef
	.section	.text,"xr",discard,"??0runtime_error@std@@QEAA@AEBV01@@Z"
	.globl	"??0runtime_error@std@@QEAA@AEBV01@@Z" # -- Begin function ??0runtime_error@std@@QEAA@AEBV01@@Z
	.p2align	4, 0x90
"??0runtime_error@std@@QEAA@AEBV01@@Z": # @"??0runtime_error@std@@QEAA@AEBV01@@Z"
.Lfunc_begin18:
.seh_proc "??0runtime_error@std@@QEAA@AEBV01@@Z"
	.seh_handler __CxxFrameHandler3, @unwind, @except
# %bb.0:
	pushq	%rbp
	.seh_pushreg %rbp
	pushq	%rsi
	.seh_pushreg %rsi
	subq	$40, %rsp
	.seh_stackalloc 40
	leaq	32(%rsp), %rbp
	.seh_setframe %rbp, 32
	.seh_endprologue
	movq	$-2, (%rbp)
	movq	%rcx, %rsi
	leaq	"??_7exception@std@@6B@"(%rip), %rax
	movq	%rax, (%rcx)
	leaq	8(%rcx), %rax
	xorps	%xmm0, %xmm0
	movups	%xmm0, 8(%rcx)
	leaq	8(%rdx), %rcx
.Ltmp66:
	movq	%rax, %rdx
	callq	__std_exception_copy
.Ltmp67:
# %bb.1:
	leaq	"??_7runtime_error@std@@6B@"(%rip), %rax
	movq	%rax, (%rsi)
	movq	%rsi, %rax
	addq	$40, %rsp
	popq	%rsi
	popq	%rbp
	retq
	.seh_handlerdata
	.long	("$cppxdata$??0runtime_error@std@@QEAA@AEBV01@@Z")@IMGREL
	.section	.text,"xr",discard,"??0runtime_error@std@@QEAA@AEBV01@@Z"
	.seh_endproc
	.def	"?dtor$2@?0???0runtime_error@std@@QEAA@AEBV01@@Z@4HA";
	.scl	3;
	.type	32;
	.endef
	.p2align	4, 0x90
"?dtor$2@?0???0runtime_error@std@@QEAA@AEBV01@@Z@4HA":
.seh_proc "?dtor$2@?0???0runtime_error@std@@QEAA@AEBV01@@Z@4HA"
.LBB30_2:
	movq	%rdx, 16(%rsp)
	pushq	%rbp
	.seh_pushreg %rbp
	pushq	%rsi
	.seh_pushreg %rsi
	subq	$40, %rsp
	.seh_stackalloc 40
	leaq	32(%rdx), %rbp
	.seh_endprologue
	callq	__std_terminate
	int3
.Lfunc_end18:
	.seh_handlerdata
	.section	.text,"xr",discard,"??0runtime_error@std@@QEAA@AEBV01@@Z"
	.seh_endproc
	.section	.xdata,"dr",associative,"??0runtime_error@std@@QEAA@AEBV01@@Z"
	.p2align	2, 0x0
"$cppxdata$??0runtime_error@std@@QEAA@AEBV01@@Z":
	.long	429065506                       # MagicNumber
	.long	1                               # MaxState
	.long	("$stateUnwindMap$??0runtime_error@std@@QEAA@AEBV01@@Z")@IMGREL # UnwindMap
	.long	0                               # NumTryBlocks
	.long	0                               # TryBlockMap
	.long	3                               # IPMapEntries
	.long	("$ip2state$??0runtime_error@std@@QEAA@AEBV01@@Z")@IMGREL # IPToStateXData
	.long	32                              # UnwindHelp
	.long	0                               # ESTypeList
	.long	1                               # EHFlags
"$stateUnwindMap$??0runtime_error@std@@QEAA@AEBV01@@Z":
	.long	-1                              # ToState
	.long	"?dtor$2@?0???0runtime_error@std@@QEAA@AEBV01@@Z@4HA"@IMGREL # Action
"$ip2state$??0runtime_error@std@@QEAA@AEBV01@@Z":
	.long	.Lfunc_begin18@IMGREL           # IP
	.long	-1                              # ToState
	.long	.Ltmp66@IMGREL+1                # IP
	.long	0                               # ToState
	.long	.Ltmp67@IMGREL+1                # IP
	.long	-1                              # ToState
	.section	.text,"xr",discard,"??0runtime_error@std@@QEAA@AEBV01@@Z"
                                        # -- End function
	.def	"??_Gformat_error@std@@UEAAPEAXI@Z";
	.scl	2;
	.type	32;
	.endef
	.section	.text,"xr",discard,"??_Gformat_error@std@@UEAAPEAXI@Z"
	.globl	"??_Gformat_error@std@@UEAAPEAXI@Z" # -- Begin function ??_Gformat_error@std@@UEAAPEAXI@Z
	.p2align	4, 0x90
"??_Gformat_error@std@@UEAAPEAXI@Z":    # @"??_Gformat_error@std@@UEAAPEAXI@Z"
.Lfunc_begin19:
.seh_proc "??_Gformat_error@std@@UEAAPEAXI@Z"
	.seh_handler __CxxFrameHandler3, @unwind, @except
# %bb.0:
	pushq	%rbp
	.seh_pushreg %rbp
	pushq	%rsi
	.seh_pushreg %rsi
	pushq	%rdi
	.seh_pushreg %rdi
	subq	$48, %rsp
	.seh_stackalloc 48
	leaq	48(%rsp), %rbp
	.seh_setframe %rbp, 48
	.seh_endprologue
	movq	$-2, -8(%rbp)
	movl	%edx, %edi
	movq	%rcx, %rsi
	leaq	"??_7exception@std@@6B@"(%rip), %rax
	movq	%rax, (%rcx)
	addq	$8, %rcx
.Ltmp68:
	callq	__std_exception_destroy
.Ltmp69:
# %bb.1:
	testl	%edi, %edi
	je	.LBB31_3
# %bb.2:
	movq	%rsi, %rcx
	callq	"??3@YAXPEAX@Z"
.LBB31_3:
	movq	%rsi, %rax
	addq	$48, %rsp
	popq	%rdi
	popq	%rsi
	popq	%rbp
	retq
	.seh_handlerdata
	.long	("$cppxdata$??_Gformat_error@std@@UEAAPEAXI@Z")@IMGREL
	.section	.text,"xr",discard,"??_Gformat_error@std@@UEAAPEAXI@Z"
	.seh_endproc
	.def	"?dtor$4@?0???_Gformat_error@std@@UEAAPEAXI@Z@4HA";
	.scl	3;
	.type	32;
	.endef
	.p2align	4, 0x90
"?dtor$4@?0???_Gformat_error@std@@UEAAPEAXI@Z@4HA":
.seh_proc "?dtor$4@?0???_Gformat_error@std@@UEAAPEAXI@Z@4HA"
.LBB31_4:
	movq	%rdx, 16(%rsp)
	pushq	%rbp
	.seh_pushreg %rbp
	pushq	%rsi
	.seh_pushreg %rsi
	pushq	%rdi
	.seh_pushreg %rdi
	subq	$32, %rsp
	.seh_stackalloc 32
	leaq	48(%rdx), %rbp
	.seh_endprologue
	callq	__std_terminate
	int3
.Lfunc_end19:
	.seh_handlerdata
	.section	.text,"xr",discard,"??_Gformat_error@std@@UEAAPEAXI@Z"
	.seh_endproc
	.section	.xdata,"dr",associative,"??_Gformat_error@std@@UEAAPEAXI@Z"
	.p2align	2, 0x0
"$cppxdata$??_Gformat_error@std@@UEAAPEAXI@Z":
	.long	429065506                       # MagicNumber
	.long	1                               # MaxState
	.long	("$stateUnwindMap$??_Gformat_error@std@@UEAAPEAXI@Z")@IMGREL # UnwindMap
	.long	0                               # NumTryBlocks
	.long	0                               # TryBlockMap
	.long	3                               # IPMapEntries
	.long	("$ip2state$??_Gformat_error@std@@UEAAPEAXI@Z")@IMGREL # IPToStateXData
	.long	40                              # UnwindHelp
	.long	0                               # ESTypeList
	.long	1                               # EHFlags
"$stateUnwindMap$??_Gformat_error@std@@UEAAPEAXI@Z":
	.long	-1                              # ToState
	.long	"?dtor$4@?0???_Gformat_error@std@@UEAAPEAXI@Z@4HA"@IMGREL # Action
"$ip2state$??_Gformat_error@std@@UEAAPEAXI@Z":
	.long	.Lfunc_begin19@IMGREL           # IP
	.long	-1                              # ToState
	.long	.Ltmp68@IMGREL+1                # IP
	.long	0                               # ToState
	.long	.Ltmp69@IMGREL+1                # IP
	.long	-1                              # ToState
	.section	.text,"xr",discard,"??_Gformat_error@std@@UEAAPEAXI@Z"
                                        # -- End function
	.def	"??_Gruntime_error@std@@UEAAPEAXI@Z";
	.scl	2;
	.type	32;
	.endef
	.section	.text,"xr",discard,"??_Gruntime_error@std@@UEAAPEAXI@Z"
	.globl	"??_Gruntime_error@std@@UEAAPEAXI@Z" # -- Begin function ??_Gruntime_error@std@@UEAAPEAXI@Z
	.p2align	4, 0x90
"??_Gruntime_error@std@@UEAAPEAXI@Z":   # @"??_Gruntime_error@std@@UEAAPEAXI@Z"
.Lfunc_begin20:
.seh_proc "??_Gruntime_error@std@@UEAAPEAXI@Z"
	.seh_handler __CxxFrameHandler3, @unwind, @except
# %bb.0:
	pushq	%rbp
	.seh_pushreg %rbp
	pushq	%rsi
	.seh_pushreg %rsi
	pushq	%rdi
	.seh_pushreg %rdi
	subq	$48, %rsp
	.seh_stackalloc 48
	leaq	48(%rsp), %rbp
	.seh_setframe %rbp, 48
	.seh_endprologue
	movq	$-2, -8(%rbp)
	movl	%edx, %edi
	movq	%rcx, %rsi
	leaq	"??_7exception@std@@6B@"(%rip), %rax
	movq	%rax, (%rcx)
	addq	$8, %rcx
.Ltmp70:
	callq	__std_exception_destroy
.Ltmp71:
# %bb.1:
	testl	%edi, %edi
	je	.LBB32_3
# %bb.2:
	movq	%rsi, %rcx
	callq	"??3@YAXPEAX@Z"
.LBB32_3:
	movq	%rsi, %rax
	addq	$48, %rsp
	popq	%rdi
	popq	%rsi
	popq	%rbp
	retq
	.seh_handlerdata
	.long	("$cppxdata$??_Gruntime_error@std@@UEAAPEAXI@Z")@IMGREL
	.section	.text,"xr",discard,"??_Gruntime_error@std@@UEAAPEAXI@Z"
	.seh_endproc
	.def	"?dtor$4@?0???_Gruntime_error@std@@UEAAPEAXI@Z@4HA";
	.scl	3;
	.type	32;
	.endef
	.p2align	4, 0x90
"?dtor$4@?0???_Gruntime_error@std@@UEAAPEAXI@Z@4HA":
.seh_proc "?dtor$4@?0???_Gruntime_error@std@@UEAAPEAXI@Z@4HA"
.LBB32_4:
	movq	%rdx, 16(%rsp)
	pushq	%rbp
	.seh_pushreg %rbp
	pushq	%rsi
	.seh_pushreg %rsi
	pushq	%rdi
	.seh_pushreg %rdi
	subq	$32, %rsp
	.seh_stackalloc 32
	leaq	48(%rdx), %rbp
	.seh_endprologue
	callq	__std_terminate
	int3
.Lfunc_end20:
	.seh_handlerdata
	.section	.text,"xr",discard,"??_Gruntime_error@std@@UEAAPEAXI@Z"
	.seh_endproc
	.section	.xdata,"dr",associative,"??_Gruntime_error@std@@UEAAPEAXI@Z"
	.p2align	2, 0x0
"$cppxdata$??_Gruntime_error@std@@UEAAPEAXI@Z":
	.long	429065506                       # MagicNumber
	.long	1                               # MaxState
	.long	("$stateUnwindMap$??_Gruntime_error@std@@UEAAPEAXI@Z")@IMGREL # UnwindMap
	.long	0                               # NumTryBlocks
	.long	0                               # TryBlockMap
	.long	3                               # IPMapEntries
	.long	("$ip2state$??_Gruntime_error@std@@UEAAPEAXI@Z")@IMGREL # IPToStateXData
	.long	40                              # UnwindHelp
	.long	0                               # ESTypeList
	.long	1                               # EHFlags
"$stateUnwindMap$??_Gruntime_error@std@@UEAAPEAXI@Z":
	.long	-1                              # ToState
	.long	"?dtor$4@?0???_Gruntime_error@std@@UEAAPEAXI@Z@4HA"@IMGREL # Action
"$ip2state$??_Gruntime_error@std@@UEAAPEAXI@Z":
	.long	.Lfunc_begin20@IMGREL           # IP
	.long	-1                              # ToState
	.long	.Ltmp70@IMGREL+1                # IP
	.long	0                               # ToState
	.long	.Ltmp71@IMGREL+1                # IP
	.long	-1                              # ToState
	.section	.text,"xr",discard,"??_Gruntime_error@std@@UEAAPEAXI@Z"
                                        # -- End function
	.def	"?_On_replacement_field@?$_Format_handler@D@__p2286@std@@QEAAX_KPEBD@Z";
	.scl	2;
	.type	32;
	.endef
	.section	.text,"xr",discard,"?_On_replacement_field@?$_Format_handler@D@__p2286@std@@QEAAX_KPEBD@Z"
	.globl	"?_On_replacement_field@?$_Format_handler@D@__p2286@std@@QEAAX_KPEBD@Z" # -- Begin function ?_On_replacement_field@?$_Format_handler@D@__p2286@std@@QEAAX_KPEBD@Z
	.p2align	4, 0x90
"?_On_replacement_field@?$_Format_handler@D@__p2286@std@@QEAAX_KPEBD@Z": # @"?_On_replacement_field@?$_Format_handler@D@__p2286@std@@QEAAX_KPEBD@Z"
.seh_proc "?_On_replacement_field@?$_Format_handler@D@__p2286@std@@QEAAX_KPEBD@Z"
# %bb.0:
	pushq	%rsi
	.seh_pushreg %rsi
	subq	$112, %rsp
	.seh_stackalloc 112
	.seh_endprologue
	movq	40(%rcx), %r8
	cmpq	%rdx, %r8
	jbe	.LBB33_8
# %bb.1:
	movq	%rcx, %rsi
	movq	48(%rcx), %r10
	movq	(%r10,%rdx,8), %rdx
	movq	%rdx, %rax
	shrq	$60, %rax
	leal	-1(%rax), %r9d
	cmpl	$12, %r9d
	ja	.LBB33_8
# %bb.2:
	leaq	40(%rsi), %rcx
	leaq	(%r10,%r8,8), %r8
	movabsq	$1152921504606846975, %r10      # imm = 0xFFFFFFFFFFFFFFF
	andq	%r10, %rdx
	leaq	.LJTI33_0(%rip), %r10
	movslq	(%r10,%r9,4), %r9
	addq	%r10, %r9
	jmpq	*%r9
.LBB33_6:
	movq	(%r8,%rdx), %rdx
	movq	%rdx, 40(%rsp)
	jmp	.LBB33_10
.LBB33_9:
	movl	(%r8,%rdx), %edx
	movl	%edx, 40(%rsp)
	jmp	.LBB33_10
.LBB33_3:
	movzbl	(%r8,%rdx), %edx
	movb	%dl, 40(%rsp)
	jmp	.LBB33_10
.LBB33_5:
	movsd	(%r8,%rdx), %xmm0               # xmm0 = mem[0],zero
	movsd	%xmm0, 40(%rsp)
	jmp	.LBB33_10
.LBB33_7:
	movq	(%r8,%rdx), %r9
	movq	%r9, 40(%rsp)
	movq	8(%r8,%rdx), %rdx
	jmp	.LBB33_11
.LBB33_4:
	movss	(%r8,%rdx), %xmm0               # xmm0 = mem[0],zero,zero,zero
	movss	%xmm0, 40(%rsp)
.LBB33_10:
                                        # implicit-def: $rdx
.LBB33_11:
	movb	%al, 56(%rsp)
	movq	40(%rsp), %rax
	movq	%rax, 64(%rsp)
	movq	%rdx, 72(%rsp)
	movq	32(%rsi), %rax
	movq	%rax, 80(%rsp)
	movups	(%rcx), %xmm0
	movups	%xmm0, 88(%rsp)
	movq	56(%rsi), %rax
	movq	%rax, 104(%rsp)
	leaq	48(%rsp), %rcx
	leaq	80(%rsp), %rdx
	leaq	56(%rsp), %r8
	callq	"??$visit_format_arg@U?$_Default_arg_formatter@V?$back_insert_iterator@V?$_Fmt_buffer@D@std@@@std@@D@__p2286@std@@V?$basic_format_context@V?$back_insert_iterator@V?$_Fmt_buffer@D@std@@@std@@D@3@@std@@YA?A?<decltype-auto>@@$$QEAU?$_Default_arg_formatter@V?$back_insert_iterator@V?$_Fmt_buffer@D@std@@@std@@D@__p2286@0@V?$basic_format_arg@V?$basic_format_context@V?$back_insert_iterator@V?$_Fmt_buffer@D@std@@@std@@D@std@@@0@@Z"
	movq	48(%rsp), %rax
	movq	%rax, 32(%rsi)
	addq	$112, %rsp
	popq	%rsi
	retq
.LBB33_8:
	leaq	"??_C@_0BE@JHBJMIJI@Argument?5not?5found?4?$AA@"(%rip), %rcx
	callq	"?_Throw_format_error@std@@YAXQEBD@Z"
	int3
	.p2align	2, 0x90
.LJTI33_0:
	.long	.LBB33_9-.LJTI33_0
	.long	.LBB33_9-.LJTI33_0
	.long	.LBB33_6-.LJTI33_0
	.long	.LBB33_6-.LJTI33_0
	.long	.LBB33_3-.LJTI33_0
	.long	.LBB33_3-.LJTI33_0
	.long	.LBB33_4-.LJTI33_0
	.long	.LBB33_5-.LJTI33_0
	.long	.LBB33_5-.LJTI33_0
	.long	.LBB33_6-.LJTI33_0
	.long	.LBB33_6-.LJTI33_0
	.long	.LBB33_7-.LJTI33_0
	.long	.LBB33_7-.LJTI33_0
	.seh_endproc
                                        # -- End function
	.def	"??$_Parse_arg_id@DAEAU?$_Id_adapter@D@std@@@std@@YAPEBDPEBD0AEAU?$_Id_adapter@D@0@@Z";
	.scl	2;
	.type	32;
	.endef
	.section	.text,"xr",discard,"??$_Parse_arg_id@DAEAU?$_Id_adapter@D@std@@@std@@YAPEBDPEBD0AEAU?$_Id_adapter@D@0@@Z"
	.globl	"??$_Parse_arg_id@DAEAU?$_Id_adapter@D@std@@@std@@YAPEBDPEBD0AEAU?$_Id_adapter@D@0@@Z" # -- Begin function ??$_Parse_arg_id@DAEAU?$_Id_adapter@D@std@@@std@@YAPEBDPEBD0AEAU?$_Id_adapter@D@0@@Z
	.p2align	4, 0x90
"??$_Parse_arg_id@DAEAU?$_Id_adapter@D@std@@@std@@YAPEBDPEBD0AEAU?$_Id_adapter@D@0@@Z": # @"??$_Parse_arg_id@DAEAU?$_Id_adapter@D@std@@@std@@YAPEBDPEBD0AEAU?$_Id_adapter@D@0@@Z"
.seh_proc "??$_Parse_arg_id@DAEAU?$_Id_adapter@D@std@@@std@@YAPEBDPEBD0AEAU?$_Id_adapter@D@0@@Z"
# %bb.0:
	subq	$40, %rsp
	.seh_stackalloc 40
	.seh_endprologue
	movzbl	(%rcx), %r9d
	cmpl	$125, %r9d
	je	.LBB34_2
# %bb.1:
	cmpl	$58, %r9d
	jne	.LBB34_5
.LBB34_2:
	movq	(%r8), %rdx
	movq	24(%rdx), %rax
	testq	%rax, %rax
	js	.LBB34_18
# %bb.3:
	leaq	1(%rax), %r9
	movq	%r9, 24(%rdx)
	jmp	.LBB34_4
.LBB34_5:
	leal	-48(%r9), %eax
	cmpb	$9, %al
	ja	.LBB34_19
# %bb.6:
	incq	%rcx
	xorl	%eax, %eax
	cmpb	$48, %r9b
	je	.LBB34_7
	.p2align	4, 0x90
.LBB34_13:                              # =>This Inner Loop Header: Depth=1
	leal	(%rax,%rax,4), %eax
	movzbl	%r9b, %r9d
	leal	(%r9,%rax,2), %eax
	addl	$-48, %eax
	cmpq	%rdx, %rcx
	je	.LBB34_14
# %bb.15:                               #   in Loop: Header=BB34_13 Depth=1
	movzbl	(%rcx), %r9d
	leal	-48(%r9), %r10d
	cmpb	$10, %r10b
	jae	.LBB34_16
# %bb.12:                               #   in Loop: Header=BB34_13 Depth=1
	incq	%rcx
	cmpl	$214748364, %eax                # imm = 0xCCCCCCC
	jbe	.LBB34_13
.LBB34_17:
	leaq	"??_C@_0BC@JOAOKPFE@Number?5is?5too?5big?$AA@"(%rip), %rcx
	callq	"?_Throw_format_error@std@@YAXQEBD@Z"
.LBB34_14:
	movq	%rdx, %rcx
.LBB34_16:
	testl	%eax, %eax
	js	.LBB34_17
.LBB34_7:
	cmpq	%rdx, %rcx
	je	.LBB34_19
# %bb.8:
	movzbl	(%rcx), %edx
	cmpl	$58, %edx
	je	.LBB34_10
# %bb.9:
	cmpl	$125, %edx
	jne	.LBB34_19
.LBB34_10:
	movq	(%r8), %rdx
	cmpq	$0, 24(%rdx)
	jg	.LBB34_20
# %bb.11:
	movl	%eax, %eax
	movq	$-1, 24(%rdx)
.LBB34_4:
	movq	%rax, 8(%r8)
	movq	%rcx, %rax
	addq	$40, %rsp
	retq
.LBB34_19:
	leaq	"??_C@_0BH@MCHHCMKF@Invalid?5format?5string?4?$AA@"(%rip), %rcx
	callq	"?_Throw_format_error@std@@YAXQEBD@Z"
.LBB34_18:
	leaq	"??_C@_0DB@GIGELLBG@Can?5not?5switch?5from?5manual?5to?5au@"(%rip), %rcx
	callq	"?_Throw_format_error@std@@YAXQEBD@Z"
.LBB34_20:
	leaq	"??_C@_0DB@FGJJGOLD@Can?5not?5switch?5from?5automatic?5to@"(%rip), %rcx
	callq	"?_Throw_format_error@std@@YAXQEBD@Z"
	int3
	.seh_endproc
                                        # -- End function
	.def	"?_On_format_specs@?$_Format_handler@D@__p2286@std@@QEAAPEBD_KPEBD1@Z";
	.scl	2;
	.type	32;
	.endef
	.section	.text,"xr",discard,"?_On_format_specs@?$_Format_handler@D@__p2286@std@@QEAAPEBD_KPEBD1@Z"
	.globl	"?_On_format_specs@?$_Format_handler@D@__p2286@std@@QEAAPEBD_KPEBD1@Z" # -- Begin function ?_On_format_specs@?$_Format_handler@D@__p2286@std@@QEAAPEBD_KPEBD1@Z
	.p2align	4, 0x90
"?_On_format_specs@?$_Format_handler@D@__p2286@std@@QEAAPEBD_KPEBD1@Z": # @"?_On_format_specs@?$_Format_handler@D@__p2286@std@@QEAAPEBD_KPEBD1@Z"
.seh_proc "?_On_format_specs@?$_Format_handler@D@__p2286@std@@QEAAPEBD_KPEBD1@Z"
# %bb.0:
	pushq	%r15
	.seh_pushreg %r15
	pushq	%r14
	.seh_pushreg %r14
	pushq	%r12
	.seh_pushreg %r12
	pushq	%rsi
	.seh_pushreg %rsi
	pushq	%rdi
	.seh_pushreg %rdi
	pushq	%rbx
	.seh_pushreg %rbx
	subq	$152, %rsp
	.seh_stackalloc 152
	.seh_endprologue
	movq	%rcx, %rdi
	movq	(%rcx), %rax
	movq	%r8, (%rcx)
	subq	%r8, %rax
	addq	%rax, 8(%rcx)
	movq	40(%rcx), %rcx
	cmpq	%rdx, %rcx
	jbe	.LBB35_8
# %bb.1:
	movq	%r9, %rbx
	movq	48(%rdi), %r9
	movq	(%r9,%rdx,8), %rax
	movq	%rax, %r14
	shrq	$60, %r14
	leal	-1(%r14), %edx
	cmpl	$12, %edx
	ja	.LBB35_8
# %bb.2:
	leaq	32(%rdi), %rsi
	leaq	(%r9,%rcx,8), %r9
	movabsq	$1152921504606846975, %rcx      # imm = 0xFFFFFFFFFFFFFFF
	andq	%rcx, %rax
	leaq	.LJTI35_0(%rip), %rcx
	movslq	(%rcx,%rdx,4), %rdx
	addq	%rcx, %rdx
	jmpq	*%rdx
.LBB35_6:
	movq	(%r9,%rax), %rax
	movq	%rax, 40(%rsp)
	jmp	.LBB35_11
.LBB35_10:
	movl	(%r9,%rax), %eax
	movl	%eax, 40(%rsp)
	jmp	.LBB35_11
.LBB35_3:
	movzbl	(%r9,%rax), %eax
	movb	%al, 40(%rsp)
	jmp	.LBB35_11
.LBB35_5:
	movsd	(%r9,%rax), %xmm0               # xmm0 = mem[0],zero
	movsd	%xmm0, 40(%rsp)
	jmp	.LBB35_11
.LBB35_4:
	movss	(%r9,%rax), %xmm0               # xmm0 = mem[0],zero,zero,zero
	movss	%xmm0, 40(%rsp)
.LBB35_11:
                                        # implicit-def: $r15
.LBB35_12:
	movabsq	$-4294967296, %rax              # imm = 0xFFFFFFFF00000000
	movq	%rax, 48(%rsp)
	movl	$0, 56(%rsp)
	movw	$0, 60(%rsp)
	movl	$8193, 62(%rsp)                 # imm = 0x2001
	movb	$0, 66(%rsp)
	leaq	48(%rsp), %r12
	movq	%r12, 96(%rsp)
	movq	%rdi, 104(%rsp)
	movq	%rsi, 112(%rsp)
	movb	%r14b, 120(%rsp)
	movb	$0, 121(%rsp)
	leaq	96(%rsp), %rax
	movq	%r8, %rcx
	movq	%rbx, %rdx
	movq	%rax, %r8
	callq	"??$_Parse_format_specs@DAEAV?$_Specs_checker@V?$_Specs_handler@V?$basic_format_parse_context@D@std@@V?$basic_format_context@V?$back_insert_iterator@V?$_Fmt_buffer@D@std@@@std@@D@2@@std@@@std@@@std@@YAPEBDPEBD0AEAV?$_Specs_checker@V?$_Specs_handler@V?$basic_format_parse_context@D@std@@V?$basic_format_context@V?$back_insert_iterator@V?$_Fmt_buffer@D@std@@@std@@D@2@@std@@@0@@Z"
	cmpq	%rbx, %rax
	je	.LBB35_16
# %bb.13:
	movq	%rax, %rdi
	cmpb	$125, (%rax)
	jne	.LBB35_16
# %bb.14:
	movb	%r14b, 128(%rsp)
	movq	40(%rsp), %rax
	movq	%rax, 136(%rsp)
	movq	%r15, 144(%rsp)
	movq	%rsi, 80(%rsp)
	movq	%r12, 88(%rsp)
	leaq	72(%rsp), %rcx
	leaq	80(%rsp), %rdx
	leaq	128(%rsp), %r8
	callq	"??$visit_format_arg@U?$_Arg_formatter@V?$back_insert_iterator@V?$_Fmt_buffer@D@std@@@std@@D@__p2286@std@@V?$basic_format_context@V?$back_insert_iterator@V?$_Fmt_buffer@D@std@@@std@@D@3@@std@@YA?A?<decltype-auto>@@$$QEAU?$_Arg_formatter@V?$back_insert_iterator@V?$_Fmt_buffer@D@std@@@std@@D@__p2286@0@V?$basic_format_arg@V?$basic_format_context@V?$back_insert_iterator@V?$_Fmt_buffer@D@std@@@std@@D@std@@@0@@Z"
	movq	72(%rsp), %rax
	movq	%rax, (%rsi)
.LBB35_15:
	movq	%rdi, %rax
	addq	$152, %rsp
	popq	%rbx
	popq	%rdi
	popq	%rsi
	popq	%r12
	popq	%r14
	popq	%r15
	retq
.LBB35_7:
	movq	(%r9,%rax), %rcx
	movq	%rcx, 40(%rsp)
	movq	8(%r9,%rax), %r15
	jmp	.LBB35_12
.LBB35_9:
	movq	(%r9,%rax), %r8
	movq	%rdi, %rcx
	movq	%rsi, %rdx
	callq	*8(%r9,%rax)
	movq	(%rdi), %rdi
	jmp	.LBB35_15
.LBB35_16:
	leaq	"??_C@_0BO@FFAGMLDI@Missing?5?8?$HN?8?5in?5format?5string?4?$AA@"(%rip), %rcx
	callq	"?_Throw_format_error@std@@YAXQEBD@Z"
.LBB35_8:
	leaq	"??_C@_0BE@JHBJMIJI@Argument?5not?5found?4?$AA@"(%rip), %rcx
	callq	"?_Throw_format_error@std@@YAXQEBD@Z"
	int3
	.p2align	2, 0x90
.LJTI35_0:
	.long	.LBB35_10-.LJTI35_0
	.long	.LBB35_10-.LJTI35_0
	.long	.LBB35_6-.LJTI35_0
	.long	.LBB35_6-.LJTI35_0
	.long	.LBB35_3-.LJTI35_0
	.long	.LBB35_3-.LJTI35_0
	.long	.LBB35_4-.LJTI35_0
	.long	.LBB35_5-.LJTI35_0
	.long	.LBB35_5-.LJTI35_0
	.long	.LBB35_6-.LJTI35_0
	.long	.LBB35_6-.LJTI35_0
	.long	.LBB35_7-.LJTI35_0
	.long	.LBB35_9-.LJTI35_0
	.seh_endproc
                                        # -- End function
	.def	"??$visit_format_arg@U?$_Default_arg_formatter@V?$back_insert_iterator@V?$_Fmt_buffer@D@std@@@std@@D@__p2286@std@@V?$basic_format_context@V?$back_insert_iterator@V?$_Fmt_buffer@D@std@@@std@@D@3@@std@@YA?A?<decltype-auto>@@$$QEAU?$_Default_arg_formatter@V?$back_insert_iterator@V?$_Fmt_buffer@D@std@@@std@@D@__p2286@0@V?$basic_format_arg@V?$basic_format_context@V?$back_insert_iterator@V?$_Fmt_buffer@D@std@@@std@@D@std@@@0@@Z";
	.scl	2;
	.type	32;
	.endef
	.section	.text,"xr",discard,"??$visit_format_arg@U?$_Default_arg_formatter@V?$back_insert_iterator@V?$_Fmt_buffer@D@std@@@std@@D@__p2286@std@@V?$basic_format_context@V?$back_insert_iterator@V?$_Fmt_buffer@D@std@@@std@@D@3@@std@@YA?A?<decltype-auto>@@$$QEAU?$_Default_arg_formatter@V?$back_insert_iterator@V?$_Fmt_buffer@D@std@@@std@@D@__p2286@0@V?$basic_format_arg@V?$basic_format_context@V?$back_insert_iterator@V?$_Fmt_buffer@D@std@@@std@@D@std@@@0@@Z"
	.globl	"??$visit_format_arg@U?$_Default_arg_formatter@V?$back_insert_iterator@V?$_Fmt_buffer@D@std@@@std@@D@__p2286@std@@V?$basic_format_context@V?$back_insert_iterator@V?$_Fmt_buffer@D@std@@@std@@D@3@@std@@YA?A?<decltype-auto>@@$$QEAU?$_Default_arg_formatter@V?$back_insert_iterator@V?$_Fmt_buffer@D@std@@@std@@D@__p2286@0@V?$basic_format_arg@V?$basic_format_context@V?$back_insert_iterator@V?$_Fmt_buffer@D@std@@@std@@D@std@@@0@@Z" # -- Begin function ??$visit_format_arg@U?$_Default_arg_formatter@V?$back_insert_iterator@V?$_Fmt_buffer@D@std@@@std@@D@__p2286@std@@V?$basic_format_context@V?$back_insert_iterator@V?$_Fmt_buffer@D@std@@@std@@D@3@@std@@YA?A?<decltype-auto>@@$$QEAU?$_Default_arg_formatter@V?$back_insert_iterator@V?$_Fmt_buffer@D@std@@@std@@D@__p2286@0@V?$basic_format_arg@V?$basic_format_context@V?$back_insert_iterator@V?$_Fmt_buffer@D@std@@@std@@D@std@@@0@@Z
	.p2align	4, 0x90
"??$visit_format_arg@U?$_Default_arg_formatter@V?$back_insert_iterator@V?$_Fmt_buffer@D@std@@@std@@D@__p2286@std@@V?$basic_format_context@V?$back_insert_iterator@V?$_Fmt_buffer@D@std@@@std@@D@3@@std@@YA?A?<decltype-auto>@@$$QEAU?$_Default_arg_formatter@V?$back_insert_iterator@V?$_Fmt_buffer@D@std@@@std@@D@__p2286@0@V?$basic_format_arg@V?$basic_format_context@V?$back_insert_iterator@V?$_Fmt_buffer@D@std@@@std@@D@std@@@0@@Z": # @"??$visit_format_arg@U?$_Default_arg_formatter@V?$back_insert_iterator@V?$_Fmt_buffer@D@std@@@std@@D@__p2286@std@@V?$basic_format_context@V?$back_insert_iterator@V?$_Fmt_buffer@D@std@@@std@@D@3@@std@@YA?A?<decltype-auto>@@$$QEAU?$_Default_arg_formatter@V?$back_insert_iterator@V?$_Fmt_buffer@D@std@@@std@@D@__p2286@0@V?$basic_format_arg@V?$basic_format_context@V?$back_insert_iterator@V?$_Fmt_buffer@D@std@@@std@@D@std@@@0@@Z"
.seh_proc "??$visit_format_arg@U?$_Default_arg_formatter@V?$back_insert_iterator@V?$_Fmt_buffer@D@std@@@std@@D@__p2286@std@@V?$basic_format_context@V?$back_insert_iterator@V?$_Fmt_buffer@D@std@@@std@@D@3@@std@@YA?A?<decltype-auto>@@$$QEAU?$_Default_arg_formatter@V?$back_insert_iterator@V?$_Fmt_buffer@D@std@@@std@@D@__p2286@0@V?$basic_format_arg@V?$basic_format_context@V?$back_insert_iterator@V?$_Fmt_buffer@D@std@@@std@@D@std@@@0@@Z"
# %bb.0:
	pushq	%r15
	.seh_pushreg %r15
	pushq	%r14
	.seh_pushreg %r14
	pushq	%rsi
	.seh_pushreg %rsi
	pushq	%rdi
	.seh_pushreg %rdi
	pushq	%rbp
	.seh_pushreg %rbp
	pushq	%rbx
	.seh_pushreg %rbx
	subq	$136, %rsp
	.seh_stackalloc 136
	.seh_endprologue
	movzbl	(%r8), %eax
	cmpq	$13, %rax
	ja	.LBB36_78
# %bb.1:
	movq	%rcx, %rsi
	leaq	.LJTI36_0(%rip), %rcx
	movslq	(%rcx,%rax,4), %rax
	addq	%rcx, %rax
	jmpq	*%rax
.LBB36_2:
	movq	(%rdx), %rax
	jmp	.LBB36_39
.LBB36_3:
	movl	8(%r8), %eax
	testl	%eax, %eax
	js	.LBB36_57
# %bb.4:
	leaq	32(%rsp), %rbx
	jmp	.LBB36_58
.LBB36_5:
	movl	8(%r8), %eax
	movq	(%rdx), %rdi
	xorl	%r14d, %r14d
	movl	$3435973837, %ecx               # imm = 0xCCCCCCCD
	.p2align	4, 0x90
.LBB36_6:                               # =>This Inner Loop Header: Depth=1
	movl	%eax, %edx
	imulq	%rcx, %rdx
	shrq	$35, %rdx
	leal	(%rdx,%rdx), %r8d
	leal	(%r8,%r8,4), %r8d
	movl	%eax, %r9d
	subl	%r8d, %r9d
	orb	$48, %r9b
	movb	%r9b, 95(%rsp,%r14)
	decq	%r14
	cmpl	$9, %eax
	movl	%edx, %eax
	ja	.LBB36_6
# %bb.7:
	movq	%r14, %r8
	negq	%r8
	cmpq	$25, %r8
	jl	.LBB36_43
# %bb.8:
	leaq	56(%rsp), %rbx
	jmp	.LBB36_45
.LBB36_9:
	movq	8(%r8), %rcx
	testq	%rcx, %rcx
	js	.LBB36_67
# %bb.10:
	leaq	32(%rsp), %rbx
	jmp	.LBB36_68
.LBB36_11:
	movq	8(%r8), %rcx
	movq	(%rdx), %rdi
	xorl	%r14d, %r14d
	movabsq	$-3689348814741910323, %r8      # imm = 0xCCCCCCCCCCCCCCCD
	.p2align	4, 0x90
.LBB36_12:                              # =>This Inner Loop Header: Depth=1
	movq	%rcx, %rax
	mulq	%r8
	shrq	$3, %rdx
	leal	(%rdx,%rdx), %eax
	leal	(%rax,%rax,4), %eax
	movl	%ecx, %r9d
	subl	%eax, %r9d
	orb	$48, %r9b
	movb	%r9b, 127(%rsp,%r14)
	decq	%r14
	cmpq	$9, %rcx
	movq	%rdx, %rcx
	ja	.LBB36_12
# %bb.13:
	movq	%r14, %r8
	negq	%r8
	cmpq	$25, %r8
	jl	.LBB36_50
# %bb.14:
	leaq	56(%rsp), %rbx
	jmp	.LBB36_52
.LBB36_15:
	cmpb	$0, 8(%r8)
	movq	(%rdx), %rdi
	leaq	"??_C@_05LAPONLG@false?$AA@"(%rip), %rax
	leaq	"??_C@_04LOAJBDKD@true?$AA@"(%rip), %rbx
	cmoveq	%rax, %rbx
	movzbl	(%rbx), %ebp
	testb	%bpl, %bpl
	je	.LBB36_76
# %bb.16:
	incq	%rbx
	jmp	.LBB36_18
	.p2align	4, 0x90
.LBB36_17:                              #   in Loop: Header=BB36_18 Depth=1
	movq	8(%rdi), %rcx
	movq	%rdx, 16(%rdi)
	movb	%bpl, (%rcx,%rax)
	movzbl	(%rbx), %ebp
	incq	%rbx
	testb	%bpl, %bpl
	je	.LBB36_76
.LBB36_18:                              # =>This Inner Loop Header: Depth=1
	movq	16(%rdi), %rax
	leaq	1(%rax), %rdx
	cmpq	%rdx, 24(%rdi)
	jae	.LBB36_17
# %bb.19:                               #   in Loop: Header=BB36_18 Depth=1
	movq	(%rdi), %rax
	movq	%rdi, %rcx
	callq	*(%rax)
	movq	16(%rdi), %rax
	leaq	1(%rax), %rdx
	jmp	.LBB36_17
.LBB36_20:
	movzbl	8(%r8), %ebx
	movq	(%rdx), %rdi
	movq	16(%rdi), %rax
	leaq	1(%rax), %rdx
	cmpq	%rdx, 24(%rdi)
	jae	.LBB36_22
# %bb.21:
	movq	(%rdi), %rax
	movq	%rdi, %rcx
	callq	*(%rax)
	movq	16(%rdi), %rax
	leaq	1(%rax), %rdx
.LBB36_22:
	movq	8(%rdi), %rcx
	movq	%rdx, 16(%rdi)
	movb	%bl, (%rcx,%rax)
	jmp	.LBB36_76
.LBB36_23:
	movss	8(%r8), %xmm2                   # xmm2 = mem[0],zero,zero,zero
	movq	(%rdx), %rdx
	movq	%rsi, %rcx
	callq	"??$_Fmt_write@DV?$back_insert_iterator@V?$_Fmt_buffer@D@std@@@std@@M@__p2286@std@@YA?AV?$back_insert_iterator@V?$_Fmt_buffer@D@std@@@1@V21@M@Z"
	jmp	.LBB36_77
.LBB36_24:
	movsd	8(%r8), %xmm2                   # xmm2 = mem[0],zero
	movq	(%rdx), %rdx
	movq	%rsi, %rcx
	callq	"??$_Fmt_write@DV?$back_insert_iterator@V?$_Fmt_buffer@D@std@@@std@@N@__p2286@std@@YA?AV?$back_insert_iterator@V?$_Fmt_buffer@D@std@@@1@V21@N@Z"
	jmp	.LBB36_77
.LBB36_25:
	movsd	8(%r8), %xmm2                   # xmm2 = mem[0],zero
	movq	(%rdx), %rdx
	movq	%rsi, %rcx
	callq	"??$_Fmt_write@DV?$back_insert_iterator@V?$_Fmt_buffer@D@std@@@std@@O@__p2286@std@@YA?AV?$back_insert_iterator@V?$_Fmt_buffer@D@std@@@1@V21@O@Z"
	jmp	.LBB36_77
.LBB36_26:
	movq	8(%r8), %r8
	movq	(%rdx), %rdx
	movq	%rsi, %rcx
	callq	"??$_Fmt_write@DV?$back_insert_iterator@V?$_Fmt_buffer@D@std@@@std@@@__p2286@std@@YA?AV?$back_insert_iterator@V?$_Fmt_buffer@D@std@@@1@V21@QEBX@Z"
	jmp	.LBB36_77
.LBB36_27:
	movq	8(%r8), %rbx
	testq	%rbx, %rbx
	je	.LBB36_79
# %bb.28:
	movq	(%rdx), %rdi
	movzbl	(%rbx), %ebp
	testb	%bpl, %bpl
	je	.LBB36_76
# %bb.29:
	incq	%rbx
	jmp	.LBB36_31
	.p2align	4, 0x90
.LBB36_30:                              #   in Loop: Header=BB36_31 Depth=1
	movq	8(%rdi), %rcx
	movq	%rdx, 16(%rdi)
	movb	%bpl, (%rcx,%rax)
	movzbl	(%rbx), %ebp
	incq	%rbx
	testb	%bpl, %bpl
	je	.LBB36_76
.LBB36_31:                              # =>This Inner Loop Header: Depth=1
	movq	16(%rdi), %rax
	leaq	1(%rax), %rdx
	cmpq	%rdx, 24(%rdi)
	jae	.LBB36_30
# %bb.32:                               #   in Loop: Header=BB36_31 Depth=1
	movq	(%rdi), %rax
	movq	%rdi, %rcx
	callq	*(%rax)
	movq	16(%rdi), %rax
	leaq	1(%rax), %rdx
	jmp	.LBB36_30
.LBB36_33:
	movq	16(%r8), %rbx
	movq	(%rdx), %rdi
	testq	%rbx, %rbx
	je	.LBB36_76
# %bb.34:
	movq	8(%r8), %r14
	xorl	%r15d, %r15d
	jmp	.LBB36_36
	.p2align	4, 0x90
.LBB36_35:                              #   in Loop: Header=BB36_36 Depth=1
	movq	8(%rdi), %rcx
	movq	%rdx, 16(%rdi)
	movb	%bpl, (%rcx,%rax)
	incq	%r15
	cmpq	%r15, %rbx
	je	.LBB36_76
.LBB36_36:                              # =>This Inner Loop Header: Depth=1
	movzbl	(%r14,%r15), %ebp
	movq	16(%rdi), %rax
	leaq	1(%rax), %rdx
	cmpq	%rdx, 24(%rdi)
	jae	.LBB36_35
# %bb.37:                               #   in Loop: Header=BB36_36 Depth=1
	movq	(%rdi), %rax
	movq	%rdi, %rcx
	callq	*(%rax)
	movq	16(%rdi), %rax
	leaq	1(%rax), %rdx
	jmp	.LBB36_35
.LBB36_38:
	movq	8(%r8), %rax
	movq	16(%r8), %r9
	xorps	%xmm0, %xmm0
	movaps	%xmm0, 80(%rsp)
	movaps	%xmm0, 64(%rsp)
	movups	8(%rdx), %xmm0
	movups	%xmm0, 40(%rsp)
	movq	(%rdx), %rcx
	movq	%rcx, 32(%rsp)
	movq	24(%rdx), %rcx
	movq	%rcx, 56(%rsp)
	leaq	64(%rsp), %rcx
	leaq	32(%rsp), %rdx
	movq	%rax, %r8
	callq	*%r9
	movq	32(%rsp), %rax
.LBB36_39:
	movq	%rax, (%rsi)
	jmp	.LBB36_77
.LBB36_43:
	leaq	(%rsp,%r14), %rdx
	addq	$96, %rdx
	leaq	32(%rsp), %rbx
	movq	%rbx, %rcx
	callq	memcpy
	testq	%r14, %r14
	je	.LBB36_76
# %bb.44:
	subq	%r14, %rbx
.LBB36_45:
	leaq	32(%rsp), %r14
	jmp	.LBB36_47
	.p2align	4, 0x90
.LBB36_46:                              #   in Loop: Header=BB36_47 Depth=1
	movq	8(%rdi), %rcx
	movq	%rdx, 16(%rdi)
	movb	%bpl, (%rcx,%rax)
	incq	%r14
	cmpq	%rbx, %r14
	je	.LBB36_76
.LBB36_47:                              # =>This Inner Loop Header: Depth=1
	movzbl	(%r14), %ebp
	movq	16(%rdi), %rax
	leaq	1(%rax), %rdx
	cmpq	%rdx, 24(%rdi)
	jae	.LBB36_46
# %bb.48:                               #   in Loop: Header=BB36_47 Depth=1
	movq	(%rdi), %rax
	movq	%rdi, %rcx
	callq	*(%rax)
	movq	16(%rdi), %rax
	leaq	1(%rax), %rdx
	jmp	.LBB36_46
.LBB36_50:
	leaq	(%rsp,%r14), %rdx
	addq	$128, %rdx
	leaq	32(%rsp), %rbx
	movq	%rbx, %rcx
	callq	memcpy
	testq	%r14, %r14
	je	.LBB36_76
# %bb.51:
	subq	%r14, %rbx
.LBB36_52:
	leaq	32(%rsp), %r14
	jmp	.LBB36_54
	.p2align	4, 0x90
.LBB36_53:                              #   in Loop: Header=BB36_54 Depth=1
	movq	8(%rdi), %rcx
	movq	%rdx, 16(%rdi)
	movb	%bpl, (%rcx,%rax)
	incq	%r14
	cmpq	%rbx, %r14
	je	.LBB36_76
.LBB36_54:                              # =>This Inner Loop Header: Depth=1
	movzbl	(%r14), %ebp
	movq	16(%rdi), %rax
	leaq	1(%rax), %rdx
	cmpq	%rdx, 24(%rdi)
	jae	.LBB36_53
# %bb.55:                               #   in Loop: Header=BB36_54 Depth=1
	movq	(%rdi), %rax
	movq	%rdi, %rcx
	callq	*(%rax)
	movq	16(%rdi), %rax
	leaq	1(%rax), %rdx
	jmp	.LBB36_53
.LBB36_57:
	leaq	33(%rsp), %rbx
	movb	$45, 32(%rsp)
	negl	%eax
.LBB36_58:
	movq	(%rdx), %rdi
	leaq	56(%rsp), %r14
	xorl	%r15d, %r15d
	movl	$3435973837, %ecx               # imm = 0xCCCCCCCD
	.p2align	4, 0x90
.LBB36_59:                              # =>This Inner Loop Header: Depth=1
	movl	%eax, %edx
	imulq	%rcx, %rdx
	shrq	$35, %rdx
	leal	(%rdx,%rdx), %r8d
	leal	(%r8,%r8,4), %r8d
	movl	%eax, %r9d
	subl	%r8d, %r9d
	orb	$48, %r9b
	movb	%r9b, 95(%rsp,%r15)
	decq	%r15
	cmpl	$9, %eax
	movl	%edx, %eax
	ja	.LBB36_59
# %bb.60:
	movq	%r15, %r8
	negq	%r8
	movq	%r14, %rax
	subq	%rbx, %rax
	cmpq	%r8, %rax
	jl	.LBB36_62
# %bb.61:
	leaq	(%rsp,%r15), %rdx
	addq	$96, %rdx
	movq	%rbx, %rcx
	callq	memmove
	subq	%r15, %rbx
	leaq	32(%rsp), %rax
	movq	%rbx, %r14
	cmpq	%rax, %rbx
	je	.LBB36_76
.LBB36_62:
	leaq	32(%rsp), %rbx
	jmp	.LBB36_64
	.p2align	4, 0x90
.LBB36_63:                              #   in Loop: Header=BB36_64 Depth=1
	movq	8(%rdi), %rcx
	movq	%rdx, 16(%rdi)
	movb	%bpl, (%rcx,%rax)
	incq	%rbx
	cmpq	%r14, %rbx
	je	.LBB36_76
.LBB36_64:                              # =>This Inner Loop Header: Depth=1
	movzbl	(%rbx), %ebp
	movq	16(%rdi), %rax
	leaq	1(%rax), %rdx
	cmpq	%rdx, 24(%rdi)
	jae	.LBB36_63
# %bb.65:                               #   in Loop: Header=BB36_64 Depth=1
	movq	(%rdi), %rax
	movq	%rdi, %rcx
	callq	*(%rax)
	movq	16(%rdi), %rax
	leaq	1(%rax), %rdx
	jmp	.LBB36_63
.LBB36_67:
	leaq	33(%rsp), %rbx
	movb	$45, 32(%rsp)
	negq	%rcx
.LBB36_68:
	movq	(%rdx), %rdi
	leaq	56(%rsp), %r14
	xorl	%r15d, %r15d
	movabsq	$-3689348814741910323, %r8      # imm = 0xCCCCCCCCCCCCCCCD
	.p2align	4, 0x90
.LBB36_69:                              # =>This Inner Loop Header: Depth=1
	movq	%rcx, %rax
	mulq	%r8
	shrq	$3, %rdx
	leal	(%rdx,%rdx), %eax
	leal	(%rax,%rax,4), %eax
	movl	%ecx, %r9d
	subl	%eax, %r9d
	orb	$48, %r9b
	movb	%r9b, 127(%rsp,%r15)
	decq	%r15
	cmpq	$9, %rcx
	movq	%rdx, %rcx
	ja	.LBB36_69
# %bb.70:
	movq	%r15, %r8
	negq	%r8
	movq	%r14, %rax
	subq	%rbx, %rax
	cmpq	%r8, %rax
	jl	.LBB36_72
# %bb.71:
	leaq	(%rsp,%r15), %rdx
	addq	$128, %rdx
	movq	%rbx, %rcx
	callq	memmove
	subq	%r15, %rbx
	leaq	32(%rsp), %rax
	movq	%rbx, %r14
	cmpq	%rax, %rbx
	je	.LBB36_76
.LBB36_72:
	leaq	32(%rsp), %rbx
	jmp	.LBB36_74
	.p2align	4, 0x90
.LBB36_73:                              #   in Loop: Header=BB36_74 Depth=1
	movq	8(%rdi), %rcx
	movq	%rdx, 16(%rdi)
	movb	%bpl, (%rcx,%rax)
	incq	%rbx
	cmpq	%r14, %rbx
	je	.LBB36_76
.LBB36_74:                              # =>This Inner Loop Header: Depth=1
	movzbl	(%rbx), %ebp
	movq	16(%rdi), %rax
	leaq	1(%rax), %rdx
	cmpq	%rdx, 24(%rdi)
	jae	.LBB36_73
# %bb.75:                               #   in Loop: Header=BB36_74 Depth=1
	movq	(%rdi), %rax
	movq	%rdi, %rcx
	callq	*(%rax)
	movq	16(%rdi), %rax
	leaq	1(%rax), %rdx
	jmp	.LBB36_73
.LBB36_76:
	movq	%rdi, (%rsi)
.LBB36_77:
	movq	%rsi, %rax
	addq	$136, %rsp
	popq	%rbx
	popq	%rbp
	popq	%rdi
	popq	%rsi
	popq	%r14
	popq	%r15
	retq
.LBB36_78:
	callq	_invalid_parameter_noinfo_noreturn
.LBB36_79:
	leaq	"??_C@_0BI@KLAHEKGE@String?5pointer?5is?5null?4?$AA@"(%rip), %rcx
	callq	"?_Throw_format_error@std@@YAXQEBD@Z"
	int3
	.p2align	2, 0x90
.LJTI36_0:
	.long	.LBB36_2-.LJTI36_0
	.long	.LBB36_3-.LJTI36_0
	.long	.LBB36_5-.LJTI36_0
	.long	.LBB36_9-.LJTI36_0
	.long	.LBB36_11-.LJTI36_0
	.long	.LBB36_15-.LJTI36_0
	.long	.LBB36_20-.LJTI36_0
	.long	.LBB36_23-.LJTI36_0
	.long	.LBB36_24-.LJTI36_0
	.long	.LBB36_25-.LJTI36_0
	.long	.LBB36_26-.LJTI36_0
	.long	.LBB36_27-.LJTI36_0
	.long	.LBB36_33-.LJTI36_0
	.long	.LBB36_38-.LJTI36_0
	.seh_endproc
                                        # -- End function
	.def	"??$_Integer_to_chars@H@std@@YA?AUto_chars_result@0@PEADQEADHH@Z";
	.scl	2;
	.type	32;
	.endef
	.section	.text,"xr",discard,"??$_Integer_to_chars@H@std@@YA?AUto_chars_result@0@PEADQEADHH@Z"
	.globl	"??$_Integer_to_chars@H@std@@YA?AUto_chars_result@0@PEADQEADHH@Z" # -- Begin function ??$_Integer_to_chars@H@std@@YA?AUto_chars_result@0@PEADQEADHH@Z
	.p2align	4, 0x90
"??$_Integer_to_chars@H@std@@YA?AUto_chars_result@0@PEADQEADHH@Z": # @"??$_Integer_to_chars@H@std@@YA?AUto_chars_result@0@PEADQEADHH@Z"
.seh_proc "??$_Integer_to_chars@H@std@@YA?AUto_chars_result@0@PEADQEADHH@Z"
# %bb.0:
	pushq	%rsi
	.seh_pushreg %rsi
	pushq	%rdi
	.seh_pushreg %rdi
	pushq	%rbx
	.seh_pushreg %rbx
	subq	$64, %rsp
	.seh_stackalloc 64
	.seh_endprologue
                                        # kill: def $r9d killed $r9d def $r9
	movq	%rdx, %rdi
	movq	%rcx, %rsi
	testl	%r9d, %r9d
	jns	.LBB37_4
# %bb.1:
	cmpq	%r8, %rdi
	je	.LBB37_2
# %bb.3:
	movb	$45, (%rdi)
	incq	%rdi
	negl	%r9d
.LBB37_4:
	movl	128(%rsp), %ecx
	leaq	64(%rsp), %rbx
	leal	-2(%rcx), %eax
	cmpl	$30, %eax
	ja	.LBB37_20
# %bb.5:
	leaq	.LJTI37_0(%rip), %rdx
	movslq	(%rdx,%rax,4), %rax
	addq	%rdx, %rax
	jmpq	*%rax
.LBB37_18:
	movq	%rbx, %r10
	.p2align	4, 0x90
.LBB37_19:                              # =>This Inner Loop Header: Depth=1
	movl	%r9d, %eax
	xorl	%edx, %edx
	divl	%ecx
	addb	$48, %dl
	movb	%dl, -1(%r10)
	decq	%r10
	cmpl	%ecx, %r9d
	movl	%eax, %r9d
	jae	.LBB37_19
.LBB37_22:
	subq	%r10, %rbx
	movq	%r8, %rcx
	subq	%rdi, %rcx
	movl	$132, %eax
	cmpq	%rbx, %rcx
	jl	.LBB37_24
# %bb.23:
	movq	%rdi, %rcx
	movq	%r10, %rdx
	movq	%rbx, %r8
	callq	memmove
	addq	%rbx, %rdi
	xorl	%eax, %eax
	movq	%rdi, %r8
.LBB37_24:
	movq	%r8, (%rsi)
	movl	%eax, 8(%rsi)
.LBB37_25:
	movq	%rsi, %rax
	addq	$64, %rsp
	popq	%rbx
	popq	%rdi
	popq	%rsi
	retq
.LBB37_2:
	movq	%rdi, (%rsi)
	movl	$132, 8(%rsi)
	jmp	.LBB37_25
.LBB37_8:
	movq	%rbx, %r10
	movl	%r9d, %eax
	.p2align	4, 0x90
.LBB37_9:                               # =>This Inner Loop Header: Depth=1
	movl	%r9d, %ecx
	andb	$1, %cl
	orb	$48, %cl
	movb	%cl, -1(%r10)
	decq	%r10
	shrl	%eax
	cmpl	$2, %r9d
	movl	%eax, %r9d
	jae	.LBB37_9
	jmp	.LBB37_22
.LBB37_10:
	movq	%rbx, %r10
	movl	%r9d, %eax
	.p2align	4, 0x90
.LBB37_11:                              # =>This Inner Loop Header: Depth=1
	movl	%r9d, %ecx
	andb	$3, %cl
	orb	$48, %cl
	movb	%cl, -1(%r10)
	decq	%r10
	shrl	$2, %eax
	cmpl	$4, %r9d
	movl	%eax, %r9d
	jae	.LBB37_11
	jmp	.LBB37_22
.LBB37_12:
	movq	%rbx, %r10
	movl	%r9d, %eax
	.p2align	4, 0x90
.LBB37_13:                              # =>This Inner Loop Header: Depth=1
	movl	%r9d, %ecx
	andb	$7, %cl
	orb	$48, %cl
	movb	%cl, -1(%r10)
	decq	%r10
	shrl	$3, %eax
	cmpl	$8, %r9d
	movl	%eax, %r9d
	jae	.LBB37_13
	jmp	.LBB37_22
.LBB37_6:
	movl	$3435973837, %eax               # imm = 0xCCCCCCCD
	movq	%rbx, %r10
	.p2align	4, 0x90
.LBB37_7:                               # =>This Inner Loop Header: Depth=1
	movl	%r9d, %ecx
	imulq	%rax, %rcx
	shrq	$35, %rcx
	leal	(%rcx,%rcx), %edx
	leal	(%rdx,%rdx,4), %edx
	movl	%r9d, %r11d
	subl	%edx, %r11d
	orb	$48, %r11b
	movb	%r11b, -1(%r10)
	decq	%r10
	cmpl	$10, %r9d
	movl	%ecx, %r9d
	jae	.LBB37_7
	jmp	.LBB37_22
.LBB37_20:
	movq	%rbx, %r10
	.p2align	4, 0x90
.LBB37_21:                              # =>This Inner Loop Header: Depth=1
	movl	%r9d, %eax
	xorl	%edx, %edx
	divl	%ecx
                                        # kill: def $edx killed $edx def $rdx
	leaq	"?_Charconv_digits@std@@3QBDB"(%rip), %r11
	movzbl	(%rdx,%r11), %edx
	movb	%dl, -1(%r10)
	decq	%r10
	cmpl	%ecx, %r9d
	movl	%eax, %r9d
	jae	.LBB37_21
	jmp	.LBB37_22
.LBB37_14:
	leaq	"?_Charconv_digits@std@@3QBDB"(%rip), %rax
	movq	%rbx, %r10
	.p2align	4, 0x90
.LBB37_15:                              # =>This Inner Loop Header: Depth=1
	movl	%r9d, %ecx
	andl	$15, %ecx
	movzbl	(%rcx,%rax), %ecx
	movb	%cl, -1(%r10)
	decq	%r10
	movl	%r9d, %ecx
	shrl	$4, %ecx
	cmpl	$16, %r9d
	movl	%ecx, %r9d
	jae	.LBB37_15
	jmp	.LBB37_22
.LBB37_16:
	leaq	"?_Charconv_digits@std@@3QBDB"(%rip), %rax
	movq	%rbx, %r10
	.p2align	4, 0x90
.LBB37_17:                              # =>This Inner Loop Header: Depth=1
	movl	%r9d, %ecx
	andl	$31, %ecx
	movzbl	(%rcx,%rax), %ecx
	movb	%cl, -1(%r10)
	decq	%r10
	movl	%r9d, %ecx
	shrl	$5, %ecx
	cmpl	$32, %r9d
	movl	%ecx, %r9d
	jae	.LBB37_17
	jmp	.LBB37_22
	.p2align	2, 0x90
.LJTI37_0:
	.long	.LBB37_8-.LJTI37_0
	.long	.LBB37_18-.LJTI37_0
	.long	.LBB37_10-.LJTI37_0
	.long	.LBB37_18-.LJTI37_0
	.long	.LBB37_18-.LJTI37_0
	.long	.LBB37_18-.LJTI37_0
	.long	.LBB37_12-.LJTI37_0
	.long	.LBB37_18-.LJTI37_0
	.long	.LBB37_6-.LJTI37_0
	.long	.LBB37_20-.LJTI37_0
	.long	.LBB37_20-.LJTI37_0
	.long	.LBB37_20-.LJTI37_0
	.long	.LBB37_20-.LJTI37_0
	.long	.LBB37_20-.LJTI37_0
	.long	.LBB37_14-.LJTI37_0
	.long	.LBB37_20-.LJTI37_0
	.long	.LBB37_20-.LJTI37_0
	.long	.LBB37_20-.LJTI37_0
	.long	.LBB37_20-.LJTI37_0
	.long	.LBB37_20-.LJTI37_0
	.long	.LBB37_20-.LJTI37_0
	.long	.LBB37_20-.LJTI37_0
	.long	.LBB37_20-.LJTI37_0
	.long	.LBB37_20-.LJTI37_0
	.long	.LBB37_20-.LJTI37_0
	.long	.LBB37_20-.LJTI37_0
	.long	.LBB37_20-.LJTI37_0
	.long	.LBB37_20-.LJTI37_0
	.long	.LBB37_20-.LJTI37_0
	.long	.LBB37_20-.LJTI37_0
	.long	.LBB37_16-.LJTI37_0
	.seh_endproc
                                        # -- End function
	.def	"??$_Integer_to_chars@I@std@@YA?AUto_chars_result@0@PEADQEADIH@Z";
	.scl	2;
	.type	32;
	.endef
	.section	.text,"xr",discard,"??$_Integer_to_chars@I@std@@YA?AUto_chars_result@0@PEADQEADIH@Z"
	.globl	"??$_Integer_to_chars@I@std@@YA?AUto_chars_result@0@PEADQEADIH@Z" # -- Begin function ??$_Integer_to_chars@I@std@@YA?AUto_chars_result@0@PEADQEADIH@Z
	.p2align	4, 0x90
"??$_Integer_to_chars@I@std@@YA?AUto_chars_result@0@PEADQEADIH@Z": # @"??$_Integer_to_chars@I@std@@YA?AUto_chars_result@0@PEADQEADIH@Z"
.seh_proc "??$_Integer_to_chars@I@std@@YA?AUto_chars_result@0@PEADQEADIH@Z"
# %bb.0:
	pushq	%rsi
	.seh_pushreg %rsi
	pushq	%rdi
	.seh_pushreg %rdi
	pushq	%rbx
	.seh_pushreg %rbx
	subq	$64, %rsp
	.seh_stackalloc 64
	.seh_endprologue
	movl	%r9d, %r10d
	movq	%rdx, %rdi
	movq	%rcx, %rsi
	movl	128(%rsp), %ecx
	leaq	64(%rsp), %rbx
	leal	-2(%rcx), %eax
	cmpl	$30, %eax
	ja	.LBB38_16
# %bb.1:
	leaq	.LJTI38_0(%rip), %rdx
	movslq	(%rdx,%rax,4), %rax
	addq	%rdx, %rax
	jmpq	*%rax
.LBB38_14:
	movq	%rbx, %r9
	.p2align	4, 0x90
.LBB38_15:                              # =>This Inner Loop Header: Depth=1
	movl	%r10d, %eax
	xorl	%edx, %edx
	divl	%ecx
	addb	$48, %dl
	movb	%dl, -1(%r9)
	decq	%r9
	cmpl	%ecx, %r10d
	movl	%eax, %r10d
	jae	.LBB38_15
.LBB38_18:
	subq	%r9, %rbx
	movq	%r8, %rcx
	subq	%rdi, %rcx
	movl	$132, %eax
	cmpq	%rbx, %rcx
	jl	.LBB38_20
# %bb.19:
	movq	%rdi, %rcx
	movq	%r9, %rdx
	movq	%rbx, %r8
	callq	memmove
	addq	%rbx, %rdi
	xorl	%eax, %eax
	movq	%rdi, %r8
.LBB38_20:
	movq	%r8, (%rsi)
	movl	%eax, 8(%rsi)
	movq	%rsi, %rax
	addq	$64, %rsp
	popq	%rbx
	popq	%rdi
	popq	%rsi
	retq
.LBB38_4:
	movq	%rbx, %r9
	movl	%r10d, %eax
	.p2align	4, 0x90
.LBB38_5:                               # =>This Inner Loop Header: Depth=1
	movl	%r10d, %ecx
	andb	$1, %cl
	orb	$48, %cl
	movb	%cl, -1(%r9)
	decq	%r9
	shrl	%eax
	cmpl	$2, %r10d
	movl	%eax, %r10d
	jae	.LBB38_5
	jmp	.LBB38_18
.LBB38_6:
	movq	%rbx, %r9
	movl	%r10d, %eax
	.p2align	4, 0x90
.LBB38_7:                               # =>This Inner Loop Header: Depth=1
	movl	%r10d, %ecx
	andb	$3, %cl
	orb	$48, %cl
	movb	%cl, -1(%r9)
	decq	%r9
	shrl	$2, %eax
	cmpl	$4, %r10d
	movl	%eax, %r10d
	jae	.LBB38_7
	jmp	.LBB38_18
.LBB38_8:
	movq	%rbx, %r9
	movl	%r10d, %eax
	.p2align	4, 0x90
.LBB38_9:                               # =>This Inner Loop Header: Depth=1
	movl	%r10d, %ecx
	andb	$7, %cl
	orb	$48, %cl
	movb	%cl, -1(%r9)
	decq	%r9
	shrl	$3, %eax
	cmpl	$8, %r10d
	movl	%eax, %r10d
	jae	.LBB38_9
	jmp	.LBB38_18
.LBB38_2:
	movl	$3435973837, %eax               # imm = 0xCCCCCCCD
	movq	%rbx, %r9
	.p2align	4, 0x90
.LBB38_3:                               # =>This Inner Loop Header: Depth=1
	movl	%r10d, %ecx
	imulq	%rax, %rcx
	shrq	$35, %rcx
	leal	(%rcx,%rcx), %edx
	leal	(%rdx,%rdx,4), %edx
	movl	%r10d, %r11d
	subl	%edx, %r11d
	orb	$48, %r11b
	movb	%r11b, -1(%r9)
	decq	%r9
	cmpl	$10, %r10d
	movl	%ecx, %r10d
	jae	.LBB38_3
	jmp	.LBB38_18
.LBB38_16:
	movq	%rbx, %r9
	.p2align	4, 0x90
.LBB38_17:                              # =>This Inner Loop Header: Depth=1
	movl	%r10d, %eax
	xorl	%edx, %edx
	divl	%ecx
                                        # kill: def $edx killed $edx def $rdx
	leaq	"?_Charconv_digits@std@@3QBDB"(%rip), %r11
	movzbl	(%rdx,%r11), %edx
	movb	%dl, -1(%r9)
	decq	%r9
	cmpl	%ecx, %r10d
	movl	%eax, %r10d
	jae	.LBB38_17
	jmp	.LBB38_18
.LBB38_10:
	leaq	"?_Charconv_digits@std@@3QBDB"(%rip), %rax
	movq	%rbx, %r9
	.p2align	4, 0x90
.LBB38_11:                              # =>This Inner Loop Header: Depth=1
	movl	%r10d, %ecx
	andl	$15, %ecx
	movzbl	(%rcx,%rax), %ecx
	movb	%cl, -1(%r9)
	decq	%r9
	movl	%r10d, %ecx
	shrl	$4, %ecx
	cmpl	$16, %r10d
	movl	%ecx, %r10d
	jae	.LBB38_11
	jmp	.LBB38_18
.LBB38_12:
	leaq	"?_Charconv_digits@std@@3QBDB"(%rip), %rax
	movq	%rbx, %r9
	.p2align	4, 0x90
.LBB38_13:                              # =>This Inner Loop Header: Depth=1
	movl	%r10d, %ecx
	andl	$31, %ecx
	movzbl	(%rcx,%rax), %ecx
	movb	%cl, -1(%r9)
	decq	%r9
	movl	%r10d, %ecx
	shrl	$5, %ecx
	cmpl	$32, %r10d
	movl	%ecx, %r10d
	jae	.LBB38_13
	jmp	.LBB38_18
	.p2align	2, 0x90
.LJTI38_0:
	.long	.LBB38_4-.LJTI38_0
	.long	.LBB38_14-.LJTI38_0
	.long	.LBB38_6-.LJTI38_0
	.long	.LBB38_14-.LJTI38_0
	.long	.LBB38_14-.LJTI38_0
	.long	.LBB38_14-.LJTI38_0
	.long	.LBB38_8-.LJTI38_0
	.long	.LBB38_14-.LJTI38_0
	.long	.LBB38_2-.LJTI38_0
	.long	.LBB38_16-.LJTI38_0
	.long	.LBB38_16-.LJTI38_0
	.long	.LBB38_16-.LJTI38_0
	.long	.LBB38_16-.LJTI38_0
	.long	.LBB38_16-.LJTI38_0
	.long	.LBB38_10-.LJTI38_0
	.long	.LBB38_16-.LJTI38_0
	.long	.LBB38_16-.LJTI38_0
	.long	.LBB38_16-.LJTI38_0
	.long	.LBB38_16-.LJTI38_0
	.long	.LBB38_16-.LJTI38_0
	.long	.LBB38_16-.LJTI38_0
	.long	.LBB38_16-.LJTI38_0
	.long	.LBB38_16-.LJTI38_0
	.long	.LBB38_16-.LJTI38_0
	.long	.LBB38_16-.LJTI38_0
	.long	.LBB38_16-.LJTI38_0
	.long	.LBB38_16-.LJTI38_0
	.long	.LBB38_16-.LJTI38_0
	.long	.LBB38_16-.LJTI38_0
	.long	.LBB38_16-.LJTI38_0
	.long	.LBB38_12-.LJTI38_0
	.seh_endproc
                                        # -- End function
	.def	"??$_Integer_to_chars@_J@std@@YA?AUto_chars_result@0@PEADQEAD_JH@Z";
	.scl	2;
	.type	32;
	.endef
	.section	.text,"xr",discard,"??$_Integer_to_chars@_J@std@@YA?AUto_chars_result@0@PEADQEAD_JH@Z"
	.globl	"??$_Integer_to_chars@_J@std@@YA?AUto_chars_result@0@PEADQEAD_JH@Z" # -- Begin function ??$_Integer_to_chars@_J@std@@YA?AUto_chars_result@0@PEADQEAD_JH@Z
	.p2align	4, 0x90
"??$_Integer_to_chars@_J@std@@YA?AUto_chars_result@0@PEADQEAD_JH@Z": # @"??$_Integer_to_chars@_J@std@@YA?AUto_chars_result@0@PEADQEAD_JH@Z"
.seh_proc "??$_Integer_to_chars@_J@std@@YA?AUto_chars_result@0@PEADQEAD_JH@Z"
# %bb.0:
	pushq	%r14
	.seh_pushreg %r14
	pushq	%rsi
	.seh_pushreg %rsi
	pushq	%rdi
	.seh_pushreg %rdi
	pushq	%rbx
	.seh_pushreg %rbx
	subq	$104, %rsp
	.seh_stackalloc 104
	.seh_endprologue
	movq	%rdx, %rdi
	movq	%rcx, %rsi
	testq	%r9, %r9
	jns	.LBB39_4
# %bb.1:
	cmpq	%r8, %rdi
	je	.LBB39_2
# %bb.3:
	movb	$45, (%rdi)
	incq	%rdi
	negq	%r9
.LBB39_4:
	movl	176(%rsp), %ecx
	leaq	96(%rsp), %rbx
	leal	-2(%rcx), %eax
	cmpl	$30, %eax
	ja	.LBB39_23
# %bb.5:
	leaq	.LJTI39_0(%rip), %rdx
	movslq	(%rdx,%rax,4), %rax
	addq	%rdx, %rax
	jmpq	*%rax
.LBB39_18:
	movl	%ecx, %r11d
	movq	%rbx, %r10
	jmp	.LBB39_19
	.p2align	4, 0x90
.LBB39_21:                              #   in Loop: Header=BB39_19 Depth=1
	movq	%r9, %rax
	xorl	%edx, %edx
	divq	%r11
.LBB39_22:                              #   in Loop: Header=BB39_19 Depth=1
	addb	$48, %dl
	movb	%dl, -1(%r10)
	decq	%r10
	cmpq	%r11, %r9
	movq	%rax, %r9
	jb	.LBB39_28
.LBB39_19:                              # =>This Inner Loop Header: Depth=1
	movq	%r9, %rax
	shrq	$32, %rax
	jne	.LBB39_21
# %bb.20:                               #   in Loop: Header=BB39_19 Depth=1
	movl	%r9d, %eax
	xorl	%edx, %edx
	divl	%ecx
                                        # kill: def $edx killed $edx def $rdx
                                        # kill: def $eax killed $eax def $rax
	jmp	.LBB39_22
.LBB39_2:
	movq	%rdi, (%rsi)
	movl	$132, 8(%rsi)
	jmp	.LBB39_31
.LBB39_8:
	movq	%rbx, %r10
	movq	%r9, %rax
	.p2align	4, 0x90
.LBB39_9:                               # =>This Inner Loop Header: Depth=1
	movl	%r9d, %ecx
	andb	$1, %cl
	orb	$48, %cl
	movb	%cl, -1(%r10)
	decq	%r10
	shrq	%rax
	cmpq	$2, %r9
	movq	%rax, %r9
	jae	.LBB39_9
	jmp	.LBB39_28
.LBB39_10:
	movq	%rbx, %r10
	movq	%r9, %rax
	.p2align	4, 0x90
.LBB39_11:                              # =>This Inner Loop Header: Depth=1
	movl	%r9d, %ecx
	andb	$3, %cl
	orb	$48, %cl
	movb	%cl, -1(%r10)
	decq	%r10
	shrq	$2, %rax
	cmpq	$4, %r9
	movq	%rax, %r9
	jae	.LBB39_11
	jmp	.LBB39_28
.LBB39_12:
	movq	%rbx, %r10
	movq	%r9, %rax
	.p2align	4, 0x90
.LBB39_13:                              # =>This Inner Loop Header: Depth=1
	movl	%r9d, %ecx
	andb	$7, %cl
	orb	$48, %cl
	movb	%cl, -1(%r10)
	decq	%r10
	shrq	$3, %rax
	cmpq	$8, %r9
	movq	%rax, %r9
	jae	.LBB39_13
	jmp	.LBB39_28
.LBB39_6:
	movabsq	$-3689348814741910323, %rcx     # imm = 0xCCCCCCCCCCCCCCCD
	movq	%rbx, %r10
	.p2align	4, 0x90
.LBB39_7:                               # =>This Inner Loop Header: Depth=1
	movq	%r9, %rax
	mulq	%rcx
	shrq	$3, %rdx
	leal	(%rdx,%rdx), %eax
	leal	(%rax,%rax,4), %eax
	movl	%r9d, %r11d
	subl	%eax, %r11d
	orb	$48, %r11b
	movb	%r11b, -1(%r10)
	decq	%r10
	cmpq	$10, %r9
	movq	%rdx, %r9
	jae	.LBB39_7
	jmp	.LBB39_28
.LBB39_23:
	movslq	%ecx, %r11
	leaq	"?_Charconv_digits@std@@3QBDB"(%rip), %r14
	movq	%rbx, %r10
	jmp	.LBB39_24
	.p2align	4, 0x90
.LBB39_26:                              #   in Loop: Header=BB39_24 Depth=1
	movq	%r9, %rax
	xorl	%edx, %edx
	divq	%r11
.LBB39_27:                              #   in Loop: Header=BB39_24 Depth=1
	movzbl	(%rdx,%r14), %edx
	movb	%dl, -1(%r10)
	decq	%r10
	cmpq	%r11, %r9
	movq	%rax, %r9
	jb	.LBB39_28
.LBB39_24:                              # =>This Inner Loop Header: Depth=1
	movq	%r9, %rax
	orq	%r11, %rax
	shrq	$32, %rax
	jne	.LBB39_26
# %bb.25:                               #   in Loop: Header=BB39_24 Depth=1
	movl	%r9d, %eax
	xorl	%edx, %edx
	divl	%ecx
                                        # kill: def $edx killed $edx def $rdx
                                        # kill: def $eax killed $eax def $rax
	jmp	.LBB39_27
.LBB39_14:
	leaq	"?_Charconv_digits@std@@3QBDB"(%rip), %rax
	movq	%rbx, %r10
	movq	%r9, %rcx
	.p2align	4, 0x90
.LBB39_15:                              # =>This Inner Loop Header: Depth=1
	movl	%r9d, %edx
	andl	$15, %edx
	movzbl	(%rdx,%rax), %edx
	movb	%dl, -1(%r10)
	decq	%r10
	shrq	$4, %rcx
	cmpq	$16, %r9
	movq	%rcx, %r9
	jae	.LBB39_15
	jmp	.LBB39_28
.LBB39_16:
	leaq	"?_Charconv_digits@std@@3QBDB"(%rip), %rax
	movq	%rbx, %r10
	movq	%r9, %rcx
	.p2align	4, 0x90
.LBB39_17:                              # =>This Inner Loop Header: Depth=1
	movl	%r9d, %edx
	andl	$31, %edx
	movzbl	(%rdx,%rax), %edx
	movb	%dl, -1(%r10)
	decq	%r10
	shrq	$5, %rcx
	cmpq	$32, %r9
	movq	%rcx, %r9
	jae	.LBB39_17
.LBB39_28:
	subq	%r10, %rbx
	movq	%r8, %rcx
	subq	%rdi, %rcx
	movl	$132, %eax
	cmpq	%rbx, %rcx
	jl	.LBB39_30
# %bb.29:
	movq	%rdi, %rcx
	movq	%r10, %rdx
	movq	%rbx, %r8
	callq	memmove
	addq	%rbx, %rdi
	xorl	%eax, %eax
	movq	%rdi, %r8
.LBB39_30:
	movq	%r8, (%rsi)
	movl	%eax, 8(%rsi)
.LBB39_31:
	movq	%rsi, %rax
	addq	$104, %rsp
	popq	%rbx
	popq	%rdi
	popq	%rsi
	popq	%r14
	retq
	.p2align	2, 0x90
.LJTI39_0:
	.long	.LBB39_8-.LJTI39_0
	.long	.LBB39_18-.LJTI39_0
	.long	.LBB39_10-.LJTI39_0
	.long	.LBB39_18-.LJTI39_0
	.long	.LBB39_18-.LJTI39_0
	.long	.LBB39_18-.LJTI39_0
	.long	.LBB39_12-.LJTI39_0
	.long	.LBB39_18-.LJTI39_0
	.long	.LBB39_6-.LJTI39_0
	.long	.LBB39_23-.LJTI39_0
	.long	.LBB39_23-.LJTI39_0
	.long	.LBB39_23-.LJTI39_0
	.long	.LBB39_23-.LJTI39_0
	.long	.LBB39_23-.LJTI39_0
	.long	.LBB39_14-.LJTI39_0
	.long	.LBB39_23-.LJTI39_0
	.long	.LBB39_23-.LJTI39_0
	.long	.LBB39_23-.LJTI39_0
	.long	.LBB39_23-.LJTI39_0
	.long	.LBB39_23-.LJTI39_0
	.long	.LBB39_23-.LJTI39_0
	.long	.LBB39_23-.LJTI39_0
	.long	.LBB39_23-.LJTI39_0
	.long	.LBB39_23-.LJTI39_0
	.long	.LBB39_23-.LJTI39_0
	.long	.LBB39_23-.LJTI39_0
	.long	.LBB39_23-.LJTI39_0
	.long	.LBB39_23-.LJTI39_0
	.long	.LBB39_23-.LJTI39_0
	.long	.LBB39_23-.LJTI39_0
	.long	.LBB39_16-.LJTI39_0
	.seh_endproc
                                        # -- End function
	.def	"??$_Integer_to_chars@_K@std@@YA?AUto_chars_result@0@PEADQEAD_KH@Z";
	.scl	2;
	.type	32;
	.endef
	.section	.text,"xr",discard,"??$_Integer_to_chars@_K@std@@YA?AUto_chars_result@0@PEADQEAD_KH@Z"
	.globl	"??$_Integer_to_chars@_K@std@@YA?AUto_chars_result@0@PEADQEAD_KH@Z" # -- Begin function ??$_Integer_to_chars@_K@std@@YA?AUto_chars_result@0@PEADQEAD_KH@Z
	.p2align	4, 0x90
"??$_Integer_to_chars@_K@std@@YA?AUto_chars_result@0@PEADQEAD_KH@Z": # @"??$_Integer_to_chars@_K@std@@YA?AUto_chars_result@0@PEADQEAD_KH@Z"
.seh_proc "??$_Integer_to_chars@_K@std@@YA?AUto_chars_result@0@PEADQEAD_KH@Z"
# %bb.0:
	pushq	%r14
	.seh_pushreg %r14
	pushq	%rsi
	.seh_pushreg %rsi
	pushq	%rdi
	.seh_pushreg %rdi
	pushq	%rbx
	.seh_pushreg %rbx
	subq	$104, %rsp
	.seh_stackalloc 104
	.seh_endprologue
	movq	%rdx, %rdi
	movq	%rcx, %rsi
	movl	176(%rsp), %ecx
	leaq	96(%rsp), %rbx
	leal	-2(%rcx), %eax
	cmpl	$30, %eax
	ja	.LBB40_19
# %bb.1:
	leaq	.LJTI40_0(%rip), %rdx
	movslq	(%rdx,%rax,4), %rax
	addq	%rdx, %rax
	jmpq	*%rax
.LBB40_14:
	movl	%ecx, %r11d
	movq	%rbx, %r10
	jmp	.LBB40_15
	.p2align	4, 0x90
.LBB40_17:                              #   in Loop: Header=BB40_15 Depth=1
	movq	%r9, %rax
	xorl	%edx, %edx
	divq	%r11
.LBB40_18:                              #   in Loop: Header=BB40_15 Depth=1
	addb	$48, %dl
	movb	%dl, -1(%r10)
	decq	%r10
	cmpq	%r11, %r9
	movq	%rax, %r9
	jb	.LBB40_24
.LBB40_15:                              # =>This Inner Loop Header: Depth=1
	movq	%r9, %rax
	shrq	$32, %rax
	jne	.LBB40_17
# %bb.16:                               #   in Loop: Header=BB40_15 Depth=1
	movl	%r9d, %eax
	xorl	%edx, %edx
	divl	%ecx
                                        # kill: def $edx killed $edx def $rdx
                                        # kill: def $eax killed $eax def $rax
	jmp	.LBB40_18
.LBB40_4:
	movq	%rbx, %r10
	movq	%r9, %rax
	.p2align	4, 0x90
.LBB40_5:                               # =>This Inner Loop Header: Depth=1
	movl	%r9d, %ecx
	andb	$1, %cl
	orb	$48, %cl
	movb	%cl, -1(%r10)
	decq	%r10
	shrq	%rax
	cmpq	$2, %r9
	movq	%rax, %r9
	jae	.LBB40_5
	jmp	.LBB40_24
.LBB40_6:
	movq	%rbx, %r10
	movq	%r9, %rax
	.p2align	4, 0x90
.LBB40_7:                               # =>This Inner Loop Header: Depth=1
	movl	%r9d, %ecx
	andb	$3, %cl
	orb	$48, %cl
	movb	%cl, -1(%r10)
	decq	%r10
	shrq	$2, %rax
	cmpq	$4, %r9
	movq	%rax, %r9
	jae	.LBB40_7
	jmp	.LBB40_24
.LBB40_8:
	movq	%rbx, %r10
	movq	%r9, %rax
	.p2align	4, 0x90
.LBB40_9:                               # =>This Inner Loop Header: Depth=1
	movl	%r9d, %ecx
	andb	$7, %cl
	orb	$48, %cl
	movb	%cl, -1(%r10)
	decq	%r10
	shrq	$3, %rax
	cmpq	$8, %r9
	movq	%rax, %r9
	jae	.LBB40_9
	jmp	.LBB40_24
.LBB40_2:
	movabsq	$-3689348814741910323, %rcx     # imm = 0xCCCCCCCCCCCCCCCD
	movq	%rbx, %r10
	.p2align	4, 0x90
.LBB40_3:                               # =>This Inner Loop Header: Depth=1
	movq	%r9, %rax
	mulq	%rcx
	shrq	$3, %rdx
	leal	(%rdx,%rdx), %eax
	leal	(%rax,%rax,4), %eax
	movl	%r9d, %r11d
	subl	%eax, %r11d
	orb	$48, %r11b
	movb	%r11b, -1(%r10)
	decq	%r10
	cmpq	$10, %r9
	movq	%rdx, %r9
	jae	.LBB40_3
	jmp	.LBB40_24
.LBB40_19:
	movslq	%ecx, %r11
	leaq	"?_Charconv_digits@std@@3QBDB"(%rip), %r14
	movq	%rbx, %r10
	jmp	.LBB40_20
	.p2align	4, 0x90
.LBB40_22:                              #   in Loop: Header=BB40_20 Depth=1
	movq	%r9, %rax
	xorl	%edx, %edx
	divq	%r11
.LBB40_23:                              #   in Loop: Header=BB40_20 Depth=1
	movzbl	(%rdx,%r14), %edx
	movb	%dl, -1(%r10)
	decq	%r10
	cmpq	%r11, %r9
	movq	%rax, %r9
	jb	.LBB40_24
.LBB40_20:                              # =>This Inner Loop Header: Depth=1
	movq	%r9, %rax
	orq	%r11, %rax
	shrq	$32, %rax
	jne	.LBB40_22
# %bb.21:                               #   in Loop: Header=BB40_20 Depth=1
	movl	%r9d, %eax
	xorl	%edx, %edx
	divl	%ecx
                                        # kill: def $edx killed $edx def $rdx
                                        # kill: def $eax killed $eax def $rax
	jmp	.LBB40_23
.LBB40_10:
	leaq	"?_Charconv_digits@std@@3QBDB"(%rip), %rax
	movq	%rbx, %r10
	movq	%r9, %rcx
	.p2align	4, 0x90
.LBB40_11:                              # =>This Inner Loop Header: Depth=1
	movl	%r9d, %edx
	andl	$15, %edx
	movzbl	(%rdx,%rax), %edx
	movb	%dl, -1(%r10)
	decq	%r10
	shrq	$4, %rcx
	cmpq	$16, %r9
	movq	%rcx, %r9
	jae	.LBB40_11
	jmp	.LBB40_24
.LBB40_12:
	leaq	"?_Charconv_digits@std@@3QBDB"(%rip), %rax
	movq	%rbx, %r10
	movq	%r9, %rcx
	.p2align	4, 0x90
.LBB40_13:                              # =>This Inner Loop Header: Depth=1
	movl	%r9d, %edx
	andl	$31, %edx
	movzbl	(%rdx,%rax), %edx
	movb	%dl, -1(%r10)
	decq	%r10
	shrq	$5, %rcx
	cmpq	$32, %r9
	movq	%rcx, %r9
	jae	.LBB40_13
.LBB40_24:
	subq	%r10, %rbx
	movq	%r8, %rcx
	subq	%rdi, %rcx
	movl	$132, %eax
	cmpq	%rbx, %rcx
	jl	.LBB40_26
# %bb.25:
	movq	%rdi, %rcx
	movq	%r10, %rdx
	movq	%rbx, %r8
	callq	memmove
	addq	%rbx, %rdi
	xorl	%eax, %eax
	movq	%rdi, %r8
.LBB40_26:
	movq	%r8, (%rsi)
	movl	%eax, 8(%rsi)
	movq	%rsi, %rax
	addq	$104, %rsp
	popq	%rbx
	popq	%rdi
	popq	%rsi
	popq	%r14
	retq
	.p2align	2, 0x90
.LJTI40_0:
	.long	.LBB40_4-.LJTI40_0
	.long	.LBB40_14-.LJTI40_0
	.long	.LBB40_6-.LJTI40_0
	.long	.LBB40_14-.LJTI40_0
	.long	.LBB40_14-.LJTI40_0
	.long	.LBB40_14-.LJTI40_0
	.long	.LBB40_8-.LJTI40_0
	.long	.LBB40_14-.LJTI40_0
	.long	.LBB40_2-.LJTI40_0
	.long	.LBB40_19-.LJTI40_0
	.long	.LBB40_19-.LJTI40_0
	.long	.LBB40_19-.LJTI40_0
	.long	.LBB40_19-.LJTI40_0
	.long	.LBB40_19-.LJTI40_0
	.long	.LBB40_10-.LJTI40_0
	.long	.LBB40_19-.LJTI40_0
	.long	.LBB40_19-.LJTI40_0
	.long	.LBB40_19-.LJTI40_0
	.long	.LBB40_19-.LJTI40_0
	.long	.LBB40_19-.LJTI40_0
	.long	.LBB40_19-.LJTI40_0
	.long	.LBB40_19-.LJTI40_0
	.long	.LBB40_19-.LJTI40_0
	.long	.LBB40_19-.LJTI40_0
	.long	.LBB40_19-.LJTI40_0
	.long	.LBB40_19-.LJTI40_0
	.long	.LBB40_19-.LJTI40_0
	.long	.LBB40_19-.LJTI40_0
	.long	.LBB40_19-.LJTI40_0
	.long	.LBB40_19-.LJTI40_0
	.long	.LBB40_12-.LJTI40_0
	.seh_endproc
                                        # -- End function
	.def	"??$_Fmt_write@DV?$back_insert_iterator@V?$_Fmt_buffer@D@std@@@std@@M@__p2286@std@@YA?AV?$back_insert_iterator@V?$_Fmt_buffer@D@std@@@1@V21@M@Z";
	.scl	2;
	.type	32;
	.endef
	.section	.text,"xr",discard,"??$_Fmt_write@DV?$back_insert_iterator@V?$_Fmt_buffer@D@std@@@std@@M@__p2286@std@@YA?AV?$back_insert_iterator@V?$_Fmt_buffer@D@std@@@1@V21@M@Z"
	.globl	"??$_Fmt_write@DV?$back_insert_iterator@V?$_Fmt_buffer@D@std@@@std@@M@__p2286@std@@YA?AV?$back_insert_iterator@V?$_Fmt_buffer@D@std@@@1@V21@M@Z" # -- Begin function ??$_Fmt_write@DV?$back_insert_iterator@V?$_Fmt_buffer@D@std@@@std@@M@__p2286@std@@YA?AV?$back_insert_iterator@V?$_Fmt_buffer@D@std@@@1@V21@M@Z
	.p2align	4, 0x90
"??$_Fmt_write@DV?$back_insert_iterator@V?$_Fmt_buffer@D@std@@@std@@M@__p2286@std@@YA?AV?$back_insert_iterator@V?$_Fmt_buffer@D@std@@@1@V21@M@Z": # @"??$_Fmt_write@DV?$back_insert_iterator@V?$_Fmt_buffer@D@std@@@std@@M@__p2286@std@@YA?AV?$back_insert_iterator@V?$_Fmt_buffer@D@std@@@1@V21@M@Z"
.Lfunc_begin21:
.seh_proc "??$_Fmt_write@DV?$back_insert_iterator@V?$_Fmt_buffer@D@std@@@std@@M@__p2286@std@@YA?AV?$back_insert_iterator@V?$_Fmt_buffer@D@std@@@1@V21@M@Z"
	.seh_handler __CxxFrameHandler3, @unwind, @except
# %bb.0:
	pushq	%rbp
	.seh_pushreg %rbp
	pushq	%r15
	.seh_pushreg %r15
	pushq	%r14
	.seh_pushreg %r14
	pushq	%r13
	.seh_pushreg %r13
	pushq	%r12
	.seh_pushreg %r12
	pushq	%rsi
	.seh_pushreg %rsi
	pushq	%rdi
	.seh_pushreg %rdi
	pushq	%rbx
	.seh_pushreg %rbx
	subq	$136, %rsp
	.seh_stackalloc 136
	leaq	128(%rsp), %rbp
	.seh_setframe %rbp, 128
	movaps	%xmm6, -16(%rbp)                # 16-byte Spill
	.seh_savexmm %xmm6, 112
	.seh_endprologue
	movq	$-2, -24(%rbp)
	movdqa	%xmm2, %xmm6
	movq	%rdx, %rdi
	movq	%rcx, %rsi
	movd	%xmm2, -48(%rbp)
.Ltmp72:
	leaq	-48(%rbp), %rbx
	movq	%rbx, %rcx
	callq	_fdtest
.Ltmp73:
# %bb.1:
	cmpw	$2, %ax
	jne	.LBB41_6
# %bb.2:
.Ltmp74:
	movdqa	%xmm6, %xmm0
	callq	_fdsign
.Ltmp75:
# %bb.3:
	leaq	-48(%rbp), %rcx
	movq	%rcx, %r14
	testl	%eax, %eax
	je	.LBB41_5
# %bb.4:
	leaq	-47(%rbp), %r14
	movb	$45, -48(%rbp)
.LBB41_5:
	movb	$110, 2(%r14)
	movw	$24942, (%r14)                  # imm = 0x616E
	addq	$3, %r14
	cmpq	%rcx, %r14
	jne	.LBB41_23
.LBB41_6:
	movd	%xmm6, %eax
	testl	%eax, %eax
	js	.LBB41_8
# %bb.7:
	leaq	-48(%rbp), %r15
	movl	%eax, %ecx
	jmp	.LBB41_9
.LBB41_8:
	leaq	-47(%rbp), %r15
	movb	$45, -48(%rbp)
	movl	%eax, %ecx
	andl	$2147483647, %ecx               # imm = 0x7FFFFFFF
	movd	%ecx, %xmm6
.LBB41_9:
	leaq	-24(%rbp), %r14
	movl	%ecx, %edx
	notl	%edx
	testl	$2139095040, %edx               # imm = 0x7F800000
	jne	.LBB41_18
# %bb.10:
	movl	%ecx, %edx
	andl	$8388607, %edx                  # imm = 0x7FFFFF
	je	.LBB41_11
# %bb.12:
	testl	%eax, %eax
	jns	.LBB41_15
# %bb.13:
	cmpl	$4194304, %edx                  # imm = 0x400000
	jne	.LBB41_15
# %bb.14:
	movl	$8, %r12d
	leaq	"??_C@_08OFCDMILK@nan?$CIind?$CJ?$AA@"(%rip), %rdx
	movq	%r14, %rax
	subq	%r15, %rax
	cmpq	%r12, %rax
	jge	.LBB41_17
	jmp	.LBB41_24
.LBB41_18:
	movd	%xmm6, %r12d
	testl	%r12d, %r12d
	je	.LBB41_19
# %bb.20:
	movl	%r12d, %r13d
	andl	$8388607, %r13d                 # imm = 0x7FFFFF
	shrl	$23, %r12d
.Ltmp76:
	movl	%r13d, %ecx
	movl	%r12d, %edx
	callq	"?__f2d@std@@YA?AU__floating_decimal_32@1@II@Z"
.Ltmp77:
# %bb.21:
.Ltmp78:
	movl	%r12d, 48(%rsp)
	movl	%r13d, 40(%rsp)
	movl	$0, 32(%rsp)
	leaq	-64(%rbp), %rcx
	movq	%r15, %rdx
	movq	%r14, %r8
	movq	%rax, %r9
	callq	"??$__to_chars@D@std@@YA?AU?$pair@PEADW4errc@std@@@0@QEAD0U__floating_decimal_32@0@W4chars_format@0@II@Z"
.Ltmp79:
# %bb.22:
	movq	-64(%rbp), %r14
	jmp	.LBB41_23
.LBB41_11:
	movl	$3, %r12d
	leaq	"??_C@_03OJHLLCGB@inf?$AA@"(%rip), %rdx
	movq	%r14, %rax
	subq	%r15, %rax
	cmpq	%r12, %rax
	jge	.LBB41_17
	jmp	.LBB41_24
.LBB41_19:
	movb	$48, (%r15)
	incq	%r15
	movq	%r15, %r14
	jmp	.LBB41_23
.LBB41_15:
	testl	$4194304, %ecx                  # imm = 0x400000
	leaq	"??_C@_09IPFBKMDL@nan?$CIsnan?$CJ?$AA@"(%rip), %rax
	leaq	"??_C@_03LHCJEHON@nan?$AA@"(%rip), %rdx
	cmoveq	%rax, %rdx
	movl	$9, %eax
	movl	$3, %r12d
	cmoveq	%rax, %r12
	movq	%r14, %rax
	subq	%r15, %rax
	cmpq	%r12, %rax
	jl	.LBB41_24
.LBB41_17:
	movq	%r15, %rcx
	movq	%r12, %r8
	callq	memcpy
	addq	%r12, %r15
	movq	%r15, %r14
	jmp	.LBB41_23
.LBB41_23:
	cmpq	%r14, %rbx
	je	.LBB41_27
.LBB41_24:
	movzbl	(%rbx), %r15d
	movq	16(%rdi), %rax
	leaq	1(%rax), %rdx
	cmpq	%rdx, 24(%rdi)
	jae	.LBB41_26
# %bb.25:
	movq	(%rdi), %rax
	movq	%rdi, %rcx
	callq	*(%rax)
	movq	16(%rdi), %rax
	leaq	1(%rax), %rdx
.LBB41_26:
	movq	8(%rdi), %rcx
	movq	%rdx, 16(%rdi)
	movb	%r15b, (%rcx,%rax)
	incq	%rbx
	jmp	.LBB41_23
.LBB41_27:
	movq	%rdi, (%rsi)
	movq	%rsi, %rax
	movaps	-16(%rbp), %xmm6                # 16-byte Reload
	addq	$136, %rsp
	popq	%rbx
	popq	%rdi
	popq	%rsi
	popq	%r12
	popq	%r13
	popq	%r14
	popq	%r15
	popq	%rbp
	retq
	.seh_handlerdata
	.long	("$cppxdata$??$_Fmt_write@DV?$back_insert_iterator@V?$_Fmt_buffer@D@std@@@std@@M@__p2286@std@@YA?AV?$back_insert_iterator@V?$_Fmt_buffer@D@std@@@1@V21@M@Z")@IMGREL
	.section	.text,"xr",discard,"??$_Fmt_write@DV?$back_insert_iterator@V?$_Fmt_buffer@D@std@@@std@@M@__p2286@std@@YA?AV?$back_insert_iterator@V?$_Fmt_buffer@D@std@@@1@V21@M@Z"
	.seh_endproc
	.def	"?dtor$28@?0???$_Fmt_write@DV?$back_insert_iterator@V?$_Fmt_buffer@D@std@@@std@@M@__p2286@std@@YA?AV?$back_insert_iterator@V?$_Fmt_buffer@D@std@@@1@V21@M@Z@4HA";
	.scl	3;
	.type	32;
	.endef
	.p2align	4, 0x90
"?dtor$28@?0???$_Fmt_write@DV?$back_insert_iterator@V?$_Fmt_buffer@D@std@@@std@@M@__p2286@std@@YA?AV?$back_insert_iterator@V?$_Fmt_buffer@D@std@@@1@V21@M@Z@4HA":
.seh_proc "?dtor$28@?0???$_Fmt_write@DV?$back_insert_iterator@V?$_Fmt_buffer@D@std@@@std@@M@__p2286@std@@YA?AV?$back_insert_iterator@V?$_Fmt_buffer@D@std@@@1@V21@M@Z@4HA"
.LBB41_28:
	movq	%rdx, 16(%rsp)
	pushq	%rbp
	.seh_pushreg %rbp
	pushq	%r15
	.seh_pushreg %r15
	pushq	%r14
	.seh_pushreg %r14
	pushq	%r13
	.seh_pushreg %r13
	pushq	%r12
	.seh_pushreg %r12
	pushq	%rsi
	.seh_pushreg %rsi
	pushq	%rdi
	.seh_pushreg %rdi
	pushq	%rbx
	.seh_pushreg %rbx
	subq	$72, %rsp
	.seh_stackalloc 72
	leaq	128(%rdx), %rbp
	movdqa	%xmm6, 48(%rsp)                 # 16-byte Spill
	.seh_savexmm %xmm6, 48
	.seh_endprologue
	callq	__std_terminate
	int3
	.seh_handlerdata
	.section	.text,"xr",discard,"??$_Fmt_write@DV?$back_insert_iterator@V?$_Fmt_buffer@D@std@@@std@@M@__p2286@std@@YA?AV?$back_insert_iterator@V?$_Fmt_buffer@D@std@@@1@V21@M@Z"
	.seh_endproc
	.def	"?dtor$29@?0???$_Fmt_write@DV?$back_insert_iterator@V?$_Fmt_buffer@D@std@@@std@@M@__p2286@std@@YA?AV?$back_insert_iterator@V?$_Fmt_buffer@D@std@@@1@V21@M@Z@4HA";
	.scl	3;
	.type	32;
	.endef
	.p2align	4, 0x90
"?dtor$29@?0???$_Fmt_write@DV?$back_insert_iterator@V?$_Fmt_buffer@D@std@@@std@@M@__p2286@std@@YA?AV?$back_insert_iterator@V?$_Fmt_buffer@D@std@@@1@V21@M@Z@4HA":
.seh_proc "?dtor$29@?0???$_Fmt_write@DV?$back_insert_iterator@V?$_Fmt_buffer@D@std@@@std@@M@__p2286@std@@YA?AV?$back_insert_iterator@V?$_Fmt_buffer@D@std@@@1@V21@M@Z@4HA"
.LBB41_29:
	movq	%rdx, 16(%rsp)
	pushq	%rbp
	.seh_pushreg %rbp
	pushq	%r15
	.seh_pushreg %r15
	pushq	%r14
	.seh_pushreg %r14
	pushq	%r13
	.seh_pushreg %r13
	pushq	%r12
	.seh_pushreg %r12
	pushq	%rsi
	.seh_pushreg %rsi
	pushq	%rdi
	.seh_pushreg %rdi
	pushq	%rbx
	.seh_pushreg %rbx
	subq	$72, %rsp
	.seh_stackalloc 72
	leaq	128(%rdx), %rbp
	movdqa	%xmm6, 48(%rsp)                 # 16-byte Spill
	.seh_savexmm %xmm6, 48
	.seh_endprologue
	callq	__std_terminate
	int3
	.seh_handlerdata
	.section	.text,"xr",discard,"??$_Fmt_write@DV?$back_insert_iterator@V?$_Fmt_buffer@D@std@@@std@@M@__p2286@std@@YA?AV?$back_insert_iterator@V?$_Fmt_buffer@D@std@@@1@V21@M@Z"
	.seh_endproc
	.def	"?dtor$30@?0???$_Fmt_write@DV?$back_insert_iterator@V?$_Fmt_buffer@D@std@@@std@@M@__p2286@std@@YA?AV?$back_insert_iterator@V?$_Fmt_buffer@D@std@@@1@V21@M@Z@4HA";
	.scl	3;
	.type	32;
	.endef
	.p2align	4, 0x90
"?dtor$30@?0???$_Fmt_write@DV?$back_insert_iterator@V?$_Fmt_buffer@D@std@@@std@@M@__p2286@std@@YA?AV?$back_insert_iterator@V?$_Fmt_buffer@D@std@@@1@V21@M@Z@4HA":
.seh_proc "?dtor$30@?0???$_Fmt_write@DV?$back_insert_iterator@V?$_Fmt_buffer@D@std@@@std@@M@__p2286@std@@YA?AV?$back_insert_iterator@V?$_Fmt_buffer@D@std@@@1@V21@M@Z@4HA"
.LBB41_30:
	movq	%rdx, 16(%rsp)
	pushq	%rbp
	.seh_pushreg %rbp
	pushq	%r15
	.seh_pushreg %r15
	pushq	%r14
	.seh_pushreg %r14
	pushq	%r13
	.seh_pushreg %r13
	pushq	%r12
	.seh_pushreg %r12
	pushq	%rsi
	.seh_pushreg %rsi
	pushq	%rdi
	.seh_pushreg %rdi
	pushq	%rbx
	.seh_pushreg %rbx
	subq	$72, %rsp
	.seh_stackalloc 72
	leaq	128(%rdx), %rbp
	movdqa	%xmm6, 48(%rsp)                 # 16-byte Spill
	.seh_savexmm %xmm6, 48
	.seh_endprologue
	callq	__std_terminate
	int3
.Lfunc_end21:
	.seh_handlerdata
	.section	.text,"xr",discard,"??$_Fmt_write@DV?$back_insert_iterator@V?$_Fmt_buffer@D@std@@@std@@M@__p2286@std@@YA?AV?$back_insert_iterator@V?$_Fmt_buffer@D@std@@@1@V21@M@Z"
	.seh_endproc
	.section	.xdata,"dr",associative,"??$_Fmt_write@DV?$back_insert_iterator@V?$_Fmt_buffer@D@std@@@std@@M@__p2286@std@@YA?AV?$back_insert_iterator@V?$_Fmt_buffer@D@std@@@1@V21@M@Z"
	.p2align	2, 0x0
"$cppxdata$??$_Fmt_write@DV?$back_insert_iterator@V?$_Fmt_buffer@D@std@@@std@@M@__p2286@std@@YA?AV?$back_insert_iterator@V?$_Fmt_buffer@D@std@@@1@V21@M@Z":
	.long	429065506                       # MagicNumber
	.long	3                               # MaxState
	.long	("$stateUnwindMap$??$_Fmt_write@DV?$back_insert_iterator@V?$_Fmt_buffer@D@std@@@std@@M@__p2286@std@@YA?AV?$back_insert_iterator@V?$_Fmt_buffer@D@std@@@1@V21@M@Z")@IMGREL # UnwindMap
	.long	0                               # NumTryBlocks
	.long	0                               # TryBlockMap
	.long	5                               # IPMapEntries
	.long	("$ip2state$??$_Fmt_write@DV?$back_insert_iterator@V?$_Fmt_buffer@D@std@@@std@@M@__p2286@std@@YA?AV?$back_insert_iterator@V?$_Fmt_buffer@D@std@@@1@V21@M@Z")@IMGREL # IPToStateXData
	.long	104                             # UnwindHelp
	.long	0                               # ESTypeList
	.long	1                               # EHFlags
"$stateUnwindMap$??$_Fmt_write@DV?$back_insert_iterator@V?$_Fmt_buffer@D@std@@@std@@M@__p2286@std@@YA?AV?$back_insert_iterator@V?$_Fmt_buffer@D@std@@@1@V21@M@Z":
	.long	-1                              # ToState
	.long	"?dtor$28@?0???$_Fmt_write@DV?$back_insert_iterator@V?$_Fmt_buffer@D@std@@@std@@M@__p2286@std@@YA?AV?$back_insert_iterator@V?$_Fmt_buffer@D@std@@@1@V21@M@Z@4HA"@IMGREL # Action
	.long	-1                              # ToState
	.long	"?dtor$29@?0???$_Fmt_write@DV?$back_insert_iterator@V?$_Fmt_buffer@D@std@@@std@@M@__p2286@std@@YA?AV?$back_insert_iterator@V?$_Fmt_buffer@D@std@@@1@V21@M@Z@4HA"@IMGREL # Action
	.long	-1                              # ToState
	.long	"?dtor$30@?0???$_Fmt_write@DV?$back_insert_iterator@V?$_Fmt_buffer@D@std@@@std@@M@__p2286@std@@YA?AV?$back_insert_iterator@V?$_Fmt_buffer@D@std@@@1@V21@M@Z@4HA"@IMGREL # Action
"$ip2state$??$_Fmt_write@DV?$back_insert_iterator@V?$_Fmt_buffer@D@std@@@std@@M@__p2286@std@@YA?AV?$back_insert_iterator@V?$_Fmt_buffer@D@std@@@1@V21@M@Z":
	.long	.Lfunc_begin21@IMGREL           # IP
	.long	-1                              # ToState
	.long	.Ltmp72@IMGREL+1                # IP
	.long	0                               # ToState
	.long	.Ltmp74@IMGREL+1                # IP
	.long	1                               # ToState
	.long	.Ltmp76@IMGREL+1                # IP
	.long	2                               # ToState
	.long	.Ltmp79@IMGREL+1                # IP
	.long	-1                              # ToState
	.section	.text,"xr",discard,"??$_Fmt_write@DV?$back_insert_iterator@V?$_Fmt_buffer@D@std@@@std@@M@__p2286@std@@YA?AV?$back_insert_iterator@V?$_Fmt_buffer@D@std@@@1@V21@M@Z"
                                        # -- End function
	.def	"??$__f2s_buffered_n@D@std@@YA?AU?$pair@PEADW4errc@std@@@0@QEAD0MW4chars_format@0@@Z";
	.scl	2;
	.type	32;
	.endef
	.section	.text,"xr",discard,"??$__f2s_buffered_n@D@std@@YA?AU?$pair@PEADW4errc@std@@@0@QEAD0MW4chars_format@0@@Z"
	.globl	"??$__f2s_buffered_n@D@std@@YA?AU?$pair@PEADW4errc@std@@@0@QEAD0MW4chars_format@0@@Z" # -- Begin function ??$__f2s_buffered_n@D@std@@YA?AU?$pair@PEADW4errc@std@@@0@QEAD0MW4chars_format@0@@Z
	.p2align	4, 0x90
"??$__f2s_buffered_n@D@std@@YA?AU?$pair@PEADW4errc@std@@@0@QEAD0MW4chars_format@0@@Z": # @"??$__f2s_buffered_n@D@std@@YA?AU?$pair@PEADW4errc@std@@@0@QEAD0MW4chars_format@0@@Z"
.seh_proc "??$__f2s_buffered_n@D@std@@YA?AU?$pair@PEADW4errc@std@@@0@QEAD0MW4chars_format@0@@Z"
# %bb.0:
	pushq	%r15
	.seh_pushreg %r15
	pushq	%r14
	.seh_pushreg %r14
	pushq	%rsi
	.seh_pushreg %rsi
	pushq	%rdi
	.seh_pushreg %rdi
	pushq	%rbp
	.seh_pushreg %rbp
	pushq	%rbx
	.seh_pushreg %rbx
	subq	$56, %rsp
	.seh_stackalloc 56
	.seh_endprologue
	movq	%r8, %rbx
	movq	%rdx, %rdi
	movq	%rcx, %rsi
	movl	144(%rsp), %r15d
	movd	%xmm3, %eax
	testl	%eax, %eax
	je	.LBB42_1
# %bb.8:
	movl	%eax, %ebp
	andl	$8388607, %ebp                  # imm = 0x7FFFFF
	movl	%eax, %r14d
	shrl	$23, %r14d
	cmpl	$2, %r15d
	jne	.LBB42_9
# %bb.11:
	cmpl	$1266679808, %eax               # imm = 0x4B800000
	jae	.LBB42_12
# %bb.14:
	movl	%ebp, %ecx
	movl	%r14d, %edx
	callq	"?__f2d@std@@YA?AU__floating_decimal_32@1@II@Z"
	movl	%r14d, 48(%rsp)
	movl	%ebp, 40(%rsp)
	movl	$2, 32(%rsp)
	jmp	.LBB42_10
.LBB42_1:
	cmpl	$1, %r15d
	jne	.LBB42_5
# %bb.2:
	movq	%rbx, %rax
	subq	%rdi, %rax
	cmpq	$4, %rax
	jle	.LBB42_3
# %bb.4:
	movb	$48, 4(%rdi)
	movl	$808150320, (%rdi)              # imm = 0x302B6530
	addq	$5, %rdi
	jmp	.LBB42_7
.LBB42_9:
	movl	%ebp, %ecx
	movl	%r14d, %edx
	callq	"?__f2d@std@@YA?AU__floating_decimal_32@1@II@Z"
	movl	%r14d, 48(%rsp)
	movl	%ebp, 40(%rsp)
	movl	%r15d, 32(%rsp)
.LBB42_10:
	movq	%rsi, %rcx
	movq	%rdi, %rdx
	movq	%rbx, %r8
	movq	%rax, %r9
	callq	"??$__to_chars@D@std@@YA?AU?$pair@PEADW4errc@std@@@0@QEAD0U__floating_decimal_32@0@W4chars_format@0@II@Z"
	jmp	.LBB42_13
.LBB42_5:
	cmpq	%rdi, %rbx
	je	.LBB42_3
# %bb.6:
	movb	$48, (%rdi)
	incq	%rdi
.LBB42_7:
	movq	%rdi, (%rsi)
	movl	$0, 8(%rsi)
	jmp	.LBB42_13
.LBB42_12:
	addl	$-150, %r14d
	orl	$8388608, %ebp                  # imm = 0x800000
	movl	%r14d, 32(%rsp)
	movq	%rsi, %rcx
	movq	%rdi, %rdx
	movq	%rbx, %r8
	movl	%ebp, %r9d
	callq	"??$_Large_integer_to_chars@D@std@@YA?AU?$pair@PEADW4errc@std@@@0@QEAD0IH@Z"
	jmp	.LBB42_13
.LBB42_3:
	movq	%rbx, (%rsi)
	movl	$132, 8(%rsi)
.LBB42_13:
	movq	%rsi, %rax
	addq	$56, %rsp
	popq	%rbx
	popq	%rbp
	popq	%rdi
	popq	%rsi
	popq	%r14
	popq	%r15
	retq
	.seh_endproc
                                        # -- End function
	.def	"??$_Large_integer_to_chars@D@std@@YA?AU?$pair@PEADW4errc@std@@@0@QEAD0IH@Z";
	.scl	2;
	.type	32;
	.endef
	.section	.text,"xr",discard,"??$_Large_integer_to_chars@D@std@@YA?AU?$pair@PEADW4errc@std@@@0@QEAD0IH@Z"
	.globl	"??$_Large_integer_to_chars@D@std@@YA?AU?$pair@PEADW4errc@std@@@0@QEAD0IH@Z" # -- Begin function ??$_Large_integer_to_chars@D@std@@YA?AU?$pair@PEADW4errc@std@@@0@QEAD0IH@Z
	.p2align	4, 0x90
"??$_Large_integer_to_chars@D@std@@YA?AU?$pair@PEADW4errc@std@@@0@QEAD0IH@Z": # @"??$_Large_integer_to_chars@D@std@@YA?AU?$pair@PEADW4errc@std@@@0@QEAD0IH@Z"
.seh_proc "??$_Large_integer_to_chars@D@std@@YA?AU?$pair@PEADW4errc@std@@@0@QEAD0IH@Z"
# %bb.0:
	pushq	%r15
	.seh_pushreg %r15
	pushq	%r14
	.seh_pushreg %r14
	pushq	%r13
	.seh_pushreg %r13
	pushq	%r12
	.seh_pushreg %r12
	pushq	%rsi
	.seh_pushreg %rsi
	pushq	%rdi
	.seh_pushreg %rdi
	pushq	%rbp
	.seh_pushreg %rbp
	pushq	%rbx
	.seh_pushreg %rbx
	subq	$56, %rsp
	.seh_stackalloc 56
	.seh_endprologue
	movq	%rdx, %r11
	movq	%rcx, 24(%rsp)                  # 8-byte Spill
	movl	160(%rsp), %ecx
	xorps	%xmm0, %xmm0
	movaps	%xmm0, (%rsp)
	leal	55(%rcx), %esi
	shrl	$5, %esi
	leal	-1(%rsi), %edi
	andl	$31, %ecx
	movl	%r9d, %eax
	shll	%cl, %eax
	cmpl	$9, %ecx
	jb	.LBB43_2
# %bb.1:
	leal	-2(%rsi), %edx
	movl	%eax, (%rsp,%rdx,4)
	negb	%cl
                                        # kill: def $cl killed $cl killed $rcx
	shrl	%cl, %r9d
	movl	%r9d, %eax
.LBB43_2:
	movl	%edi, %ecx
	movl	%eax, (%rsp,%rcx,4)
	testl	%edi, %edi
	je	.LBB43_3
# %bb.4:
	addl	$-2, %esi
	xorl	%r9d, %r9d
	movabsq	$19342813113834067, %rbx        # imm = 0x44B82FA09B5A53
	xorl	%ecx, %ecx
	jmp	.LBB43_5
	.p2align	4, 0x90
.LBB43_13:                              #   in Loop: Header=BB43_5 Depth=1
	incl	%r9d
	decl	%edi
	je	.LBB43_14
.LBB43_5:                               # =>This Loop Header: Depth=1
                                        #     Child Loop BB43_6 Depth 2
                                        #       Child Loop BB43_11 Depth 3
	movl	%edi, %r14d
	leal	-1(%rdi), %r15d
	jmp	.LBB43_6
	.p2align	4, 0x90
.LBB43_12:                              #   in Loop: Header=BB43_6 Depth=2
	movl	%eax, 32(%rsp,%rcx,4)
	incq	%rcx
	cmpl	$999999999, %ebp                # imm = 0x3B9AC9FF
	jbe	.LBB43_13
.LBB43_6:                               #   Parent Loop BB43_5 Depth=1
                                        # =>  This Loop Header: Depth=2
                                        #       Child Loop BB43_11 Depth 3
	movl	(%rsp,%r14,4), %ebp
	movl	%ebp, %eax
	shrl	$9, %eax
	imulq	$281475, %rax, %rdx             # imm = 0x44B83
	shrq	$39, %rdx
	imull	$1000000000, %edx, %r12d        # imm = 0x3B9ACA00
	movl	%ebp, %eax
	subl	%r12d, %eax
	movl	%edx, (%rsp,%r14,4)
	testb	$1, %dil
	jne	.LBB43_8
# %bb.7:                                #   in Loop: Header=BB43_6 Depth=2
	movl	%edi, %r12d
	cmpl	%r9d, %esi
	je	.LBB43_12
	jmp	.LBB43_10
	.p2align	4, 0x90
.LBB43_8:                               #   in Loop: Header=BB43_6 Depth=2
	shlq	$32, %rax
	movl	(%rsp,%r15,4), %r12d
	orq	%r12, %rax
	shrq	$9, %rax
	mulq	%rbx
	shrq	$11, %rdx
	imull	$-1000000000, %edx, %eax        # imm = 0xC4653600
	addl	%r12d, %eax
	movl	%edx, (%rsp,%r15,4)
	movl	%r15d, %r12d
	cmpl	%r9d, %esi
	je	.LBB43_12
.LBB43_10:                              #   in Loop: Header=BB43_6 Depth=2
	decl	%r12d
	.p2align	4, 0x90
.LBB43_11:                              #   Parent Loop BB43_5 Depth=1
                                        #     Parent Loop BB43_6 Depth=2
                                        # =>    This Inner Loop Header: Depth=3
	shlq	$32, %rax
	movl	%r12d, %r13d
	movl	(%rsp,%r13,4), %r10d
	orq	%r10, %rax
	shrq	$9, %rax
	mulq	%rbx
	shrq	$11, %rdx
	imull	$-1000000000, %edx, %eax        # imm = 0xC4653600
	addl	%r10d, %eax
	movl	%edx, (%rsp,%r13,4)
	leal	-1(%r12), %r10d
	shlq	$32, %rax
	movl	(%rsp,%r10,4), %r13d
	orq	%r13, %rax
	shrq	$9, %rax
	mulq	%rbx
	shrq	$11, %rdx
	imull	$-1000000000, %edx, %eax        # imm = 0xC4653600
	addl	%r13d, %eax
	movl	%edx, (%rsp,%r10,4)
	addl	$-2, %r12d
	cmpl	$-1, %r12d
	jne	.LBB43_11
	jmp	.LBB43_12
.LBB43_3:
	xorl	%ecx, %ecx
.LBB43_14:
	movl	(%rsp), %eax
	movl	$10, %r9d
	cmpl	$999999999, %eax                # imm = 0x3B9AC9FF
	ja	.LBB43_23
# %bb.15:
	movl	$9, %r9d
	cmpl	$99999999, %eax                 # imm = 0x5F5E0FF
	ja	.LBB43_23
# %bb.16:
	movl	$8, %r9d
	cmpl	$9999999, %eax                  # imm = 0x98967F
	ja	.LBB43_23
# %bb.17:
	movl	$7, %r9d
	cmpl	$999999, %eax                   # imm = 0xF423F
	ja	.LBB43_23
# %bb.18:
	movl	$6, %r9d
	cmpl	$99999, %eax                    # imm = 0x1869F
	ja	.LBB43_23
# %bb.19:
	movl	$5, %r9d
	cmpl	$9999, %eax                     # imm = 0x270F
	ja	.LBB43_23
# %bb.20:
	movl	$4, %r9d
	cmpl	$999, %eax                      # imm = 0x3E7
	ja	.LBB43_23
# %bb.21:
	movl	$3, %r9d
	cmpl	$99, %eax
	ja	.LBB43_23
# %bb.22:
	cmpl	$10, %eax
	movl	$1, %r9d
	sbbl	$-1, %r9d
.LBB43_23:
	leal	(%rcx,%rcx,8), %r10d
	addl	%r9d, %r10d
	movq	%r8, %rsi
	subq	%r11, %rsi
	movl	$132, %edx
	cmpq	%r10, %rsi
	jl	.LBB43_40
# %bb.24:
	xorl	%r8d, %r8d
	movl	%r9d, %edx
	cmpl	$10000, %eax                    # imm = 0x2710
	jb	.LBB43_25
# %bb.26:
	leaq	(%r11,%rdx), %rsi
	xorl	%r8d, %r8d
	movl	$3518437209, %edi               # imm = 0xD1B71759
	leaq	"??$__DIGIT_TABLE@D@std@@3QBDB"(%rip), %rbx
	.p2align	4, 0x90
.LBB43_27:                              # =>This Inner Loop Header: Depth=1
	movl	%eax, %r9d
	imulq	%rdi, %r9
	shrq	$45, %r9
	imull	$-10000, %r9d, %r10d            # imm = 0xD8F0
	addl	%eax, %r10d
	imulq	$1374389535, %r10, %r14         # imm = 0x51EB851F
	shrq	$37, %r14
	imull	$100, %r14d, %ebp
	subl	%ebp, %r10d
	movl	%r8d, %r15d
	movq	%rsi, %r12
	subq	%r15, %r12
	movzwl	(%rbx,%r10,2), %r10d
	movw	%r10w, -2(%r12)
	movzwl	(%rbx,%r14,2), %r10d
	movw	%r10w, -4(%r12)
	addl	$4, %r8d
	cmpl	$99999999, %eax                 # imm = 0x5F5E0FF
	movl	%r9d, %eax
	ja	.LBB43_27
# %bb.28:
	cmpl	$100, %r9d
	jb	.LBB43_30
.LBB43_29:
	movzwl	%r9w, %eax
	shrl	$2, %eax
	imull	$5243, %eax, %eax               # imm = 0x147B
	shrl	$17, %eax
	imull	$100, %eax, %r10d
	subl	%r10d, %r9d
	movzwl	%r9w, %r9d
	leaq	(%r11,%rdx), %r10
	movl	%r8d, %esi
	subq	%rsi, %r10
	leaq	"??$__DIGIT_TABLE@D@std@@3QBDB"(%rip), %rsi
	movzwl	(%rsi,%r9,2), %r9d
	movw	%r9w, -2(%r10)
	orl	$2, %r8d
	movl	%eax, %r9d
.LBB43_30:
	cmpl	$10, %r9d
	jb	.LBB43_32
# %bb.31:
	movl	%r9d, %eax
	leaq	(%r11,%rdx), %r9
	movl	%r8d, %r8d
	subq	%r8, %r9
	leaq	"??$__DIGIT_TABLE@D@std@@3QBDB"(%rip), %r8
	movzwl	(%r8,%rax,2), %eax
	movw	%ax, -2(%r9)
	addq	%rdx, %r11
	xorl	%edx, %edx
	testl	%ecx, %ecx
	jg	.LBB43_34
	jmp	.LBB43_39
.LBB43_25:
	movl	%eax, %r9d
	cmpl	$100, %r9d
	jae	.LBB43_29
	jmp	.LBB43_30
.LBB43_32:
	addb	$48, %r9b
	movb	%r9b, (%r11)
	addq	%rdx, %r11
	xorl	%edx, %edx
	testl	%ecx, %ecx
	jle	.LBB43_39
.LBB43_34:
	movl	%ecx, %eax
	incq	%rax
	movabsq	$3472328296227680304, %rcx      # imm = 0x3030303030303030
	movl	$3518437209, %r8d               # imm = 0xD1B71759
	leaq	"??$__DIGIT_TABLE@D@std@@3QBDB"(%rip), %r9
	jmp	.LBB43_35
	.p2align	4, 0x90
.LBB43_37:                              #   in Loop: Header=BB43_35 Depth=1
	movq	%rcx, (%r11)
	movb	$48, 8(%r11)
	addq	$9, %r11
	decq	%rax
	cmpq	$1, %rax
	jbe	.LBB43_39
.LBB43_35:                              # =>This Inner Loop Header: Depth=1
	leal	-2(%rax), %r10d
	movl	32(%rsp,%r10,4), %esi
	testl	%esi, %esi
	je	.LBB43_37
# %bb.36:                               #   in Loop: Header=BB43_35 Depth=1
	movl	%esi, %r10d
	imulq	$1441151881, %r10, %rdi         # imm = 0x55E63B89
	imulq	%r8, %r10
	shrq	$45, %r10
	imull	$-10000, %r10d, %ebx            # imm = 0xD8F0
	addl	%esi, %ebx
	imulq	$1374389535, %rbx, %rsi         # imm = 0x51EB851F
	shrq	$37, %rsi
	imull	$100, %esi, %ebp
	subl	%ebp, %ebx
	movzwl	(%r9,%rbx,2), %ebx
	movw	%bx, 7(%r11)
	movzwl	(%r9,%rsi,2), %esi
	movw	%si, 5(%r11)
	shrq	$57, %rdi
	imull	$-10000, %edi, %esi             # imm = 0xD8F0
	addl	%r10d, %esi
	imulq	$1374389535, %rsi, %r10         # imm = 0x51EB851F
	shrq	$37, %r10
	imull	$100, %r10d, %ebx
	subl	%ebx, %esi
	movzwl	(%r9,%rsi,2), %esi
	movw	%si, 3(%r11)
	movzwl	(%r9,%r10,2), %r10d
	movw	%r10w, 1(%r11)
	addb	$48, %dil
	movb	%dil, (%r11)
	addq	$9, %r11
	decq	%rax
	cmpq	$1, %rax
	ja	.LBB43_35
.LBB43_39:
	movq	%r11, %r8
.LBB43_40:
	movq	24(%rsp), %rax                  # 8-byte Reload
	movq	%r8, (%rax)
	movl	%edx, 8(%rax)
	addq	$56, %rsp
	popq	%rbx
	popq	%rbp
	popq	%rdi
	popq	%rsi
	popq	%r12
	popq	%r13
	popq	%r14
	popq	%r15
	retq
	.seh_endproc
                                        # -- End function
	.def	"?__f2d@std@@YA?AU__floating_decimal_32@1@II@Z";
	.scl	2;
	.type	32;
	.endef
	.section	.text,"xr",discard,"?__f2d@std@@YA?AU__floating_decimal_32@1@II@Z"
	.globl	"?__f2d@std@@YA?AU__floating_decimal_32@1@II@Z" # -- Begin function ?__f2d@std@@YA?AU__floating_decimal_32@1@II@Z
	.p2align	4, 0x90
"?__f2d@std@@YA?AU__floating_decimal_32@1@II@Z": # @"?__f2d@std@@YA?AU__floating_decimal_32@1@II@Z"
.seh_proc "?__f2d@std@@YA?AU__floating_decimal_32@1@II@Z"
# %bb.0:
	pushq	%r15
	.seh_pushreg %r15
	pushq	%r14
	.seh_pushreg %r14
	pushq	%r13
	.seh_pushreg %r13
	pushq	%r12
	.seh_pushreg %r12
	pushq	%rsi
	.seh_pushreg %rsi
	pushq	%rdi
	.seh_pushreg %rdi
	pushq	%rbp
	.seh_pushreg %rbp
	pushq	%rbx
	.seh_pushreg %rbx
	.seh_endprologue
                                        # kill: def $edx killed $edx def $rdx
	leal	-152(%rdx), %eax
	movl	%ecx, %r8d
	orl	$8388608, %r8d                  # imm = 0x800000
	testl	%edx, %edx
	cmovel	%ecx, %r8d
	movl	$-151, %r11d
	cmovnel	%eax, %r11d
	leal	(,%r8,4), %r14d
	leal	2(,%r8,4), %r15d
	testl	%ecx, %ecx
	setne	%al
	cmpl	$2, %edx
	setb	%sil
	orb	%al, %sil
	movzbl	%sil, %eax
	notl	%eax
	leal	(%rax,%r8,4), %r13d
	movl	%r14d, %r12d
	movl	%r15d, %ebp
	movl	%r13d, %r10d
	testl	%r11d, %r11d
	js	.LBB44_3
# %bb.1:
	imull	$78913, %r11d, %esi             # imm = 0x13441
	movl	%esi, %ebx
	shrl	$18, %ebx
	imull	$1217359, %ebx, %ecx            # imm = 0x12934F
	shrl	$19, %ecx
	movl	%ebx, %eax
	subl	%r11d, %eax
	leaq	"?__FLOAT_POW5_INV_SPLIT@std@@3QB_KB"(%rip), %rdx
	movq	(%rdx,%rbx,8), %r11
	movl	%r11d, %r9d
	shrq	$32, %r11
	movq	%r9, %rdx
	imulq	%r12, %rdx
	movq	%r11, %rdi
	imulq	%r12, %rdi
	shrq	$32, %rdx
	addq	%rdi, %rdx
	addl	%eax, %ecx
	addb	$27, %cl
	shrq	%cl, %rdx
	movq	%r9, %rdi
	imulq	%rbp, %rdi
	imulq	%r11, %rbp
	shrq	$32, %rdi
	addq	%rbp, %rdi
	shrq	%cl, %rdi
	imulq	%r10, %r9
	imulq	%r10, %r11
	shrq	$32, %r9
	addq	%r11, %r9
                                        # kill: def $cl killed $cl killed $ecx
	shrq	%cl, %r9
	cmpl	$262144, %esi                   # imm = 0x40000
	jae	.LBB44_5
# %bb.2:
	xorl	%r10d, %r10d
	jmp	.LBB44_12
.LBB44_3:
	imull	$-732923, %r11d, %ebx           # imm = 0xFFF4D105
	movl	%ebx, %eax
	shrl	$20, %eax
	addl	%eax, %r11d
	movl	%r11d, %ecx
	negl	%ecx
	imull	$-1217359, %r11d, %edi          # imm = 0xFFED6CB1
	shrl	$19, %edi
	leaq	"?__FLOAT_POW5_SPLIT@std@@3QB_KB"(%rip), %r15
	movq	(%r15,%rcx,8), %r13
	movl	%r13d, %r9d
	shrq	$32, %r13
	movq	%r9, %rdx
	imulq	%r12, %rdx
	movq	%r13, %rcx
	imulq	%r12, %rcx
	shrq	$32, %rdx
	addq	%rcx, %rdx
	movl	%eax, %ecx
	subl	%edi, %ecx
	addb	$28, %cl
	shrq	%cl, %rdx
	movq	%r9, %rdi
	imulq	%rbp, %rdi
	imulq	%r13, %rbp
	shrq	$32, %rdi
	addq	%rbp, %rdi
	shrq	%cl, %rdi
	imulq	%r10, %r9
	imulq	%r10, %r13
	shrq	$32, %r9
	addq	%r13, %r9
                                        # kill: def $cl killed $cl killed $ecx
	shrq	%cl, %r9
	cmpl	$1048576, %ebx                  # imm = 0x100000
	jae	.LBB44_7
# %bb.4:
	xorl	%r10d, %r10d
	jmp	.LBB44_34
.LBB44_5:
	leal	-1(%rdi), %ecx
	movl	$3435973837, %ebp               # imm = 0xCCCCCCCD
	imulq	%rbp, %rcx
	shrq	$35, %rcx
	movl	%r9d, %r10d
	imulq	%rbp, %r10
	shrq	$35, %r10
	cmpl	%r10d, %ecx
	jbe	.LBB44_11
# %bb.6:
	xorl	%r10d, %r10d
	cmpl	$2621439, %esi                  # imm = 0x27FFFF
	jbe	.LBB44_12
	jmp	.LBB44_18
.LBB44_7:
	leal	-1(%rdi), %ecx
	movl	$3435973837, %r13d              # imm = 0xCCCCCCCD
	imulq	%r13, %rcx
	shrq	$35, %rcx
	movl	%r9d, %r10d
	imulq	%r13, %r10
	shrq	$35, %r10
	cmpl	%r10d, %ecx
	jbe	.LBB44_33
# %bb.8:
	xorl	%r10d, %r10d
	cmpl	$2097151, %ebx                  # imm = 0x1FFFFF
	jbe	.LBB44_34
.LBB44_9:
	cmpl	$32505855, %ebx                 # imm = 0x1EFFFFF
	ja	.LBB44_35
# %bb.10:
	decb	%al
	movl	$-1, %esi
	movl	%eax, %ecx
	shll	%cl, %esi
	notl	%esi
	testl	%esi, %r14d
	sete	%al
	xorl	%esi, %esi
	movl	%r11d, %ebx
	testb	%al, %al
	je	.LBB44_26
	jmp	.LBB44_37
.LBB44_11:
	leal	-1(%rbx), %ecx
	imull	$1217359, %ecx, %r11d           # imm = 0x12934F
	shrl	$19, %r11d
	leaq	"?__FLOAT_POW5_INV_SPLIT@std@@3QB_KB"(%rip), %r10
	movq	(%r10,%rcx,8), %rcx
	movl	%ecx, %r10d
	shrq	$32, %rcx
	imulq	%r12, %r10
	imulq	%r12, %rcx
	shrq	$32, %r10
	addq	%rcx, %r10
	addl	%r11d, %eax
	addb	$26, %al
	movl	%eax, %ecx
	shrq	%cl, %r10
	movl	%r10d, %eax
	imulq	%rbp, %rax
	shrq	$35, %rax
	addl	%eax, %eax
	leal	(%rax,%rax,4), %eax
	subl	%eax, %r10d
	cmpl	$2621439, %esi                  # imm = 0x27FFFF
	ja	.LBB44_18
.LBB44_12:
	imull	$-858993459, %r14d, %eax        # imm = 0xCCCCCCCD
	cmpl	$858993459, %eax                # imm = 0x33333333
	jbe	.LBB44_19
# %bb.13:
	testb	$1, %r8b
	je	.LBB44_22
# %bb.14:
	imull	$-858993459, %r15d, %ecx        # imm = 0xCCCCCCCD
	xorl	%eax, %eax
	cmpl	$858993459, %ecx                # imm = 0x33333333
	ja	.LBB44_17
# %bb.15:
	xorl	%eax, %eax
	movl	$3435973837, %ecx               # imm = 0xCCCCCCCD
	.p2align	4, 0x90
.LBB44_16:                              # =>This Inner Loop Header: Depth=1
	movl	%r15d, %r15d
	imulq	%rcx, %r15
	shrq	$34, %r15
	incl	%eax
	imull	$-858993459, %r15d, %r11d       # imm = 0xCCCCCCCD
	cmpl	$858993460, %r11d               # imm = 0x33333334
	jb	.LBB44_16
.LBB44_17:
	cmpl	%ebx, %eax
	adcl	$-1, %edi
.LBB44_18:
	xorl	%eax, %eax
	xorl	%esi, %esi
	testb	%al, %al
	je	.LBB44_26
	jmp	.LBB44_37
.LBB44_19:
	xorl	%eax, %eax
	movl	$3435973837, %ecx               # imm = 0xCCCCCCCD
	.p2align	4, 0x90
.LBB44_20:                              # =>This Inner Loop Header: Depth=1
	movl	%r14d, %r14d
	imulq	%rcx, %r14
	shrq	$34, %r14
	incl	%eax
	imull	$-858993459, %r14d, %r11d       # imm = 0xCCCCCCCD
	cmpl	$858993460, %r11d               # imm = 0x33333334
	jb	.LBB44_20
# %bb.21:
	cmpl	%ebx, %eax
	setae	%al
	xorl	%esi, %esi
	testb	%al, %al
	je	.LBB44_26
	jmp	.LBB44_37
.LBB44_22:
	imull	$-858993459, %r13d, %ecx        # imm = 0xCCCCCCCD
	xorl	%eax, %eax
	cmpl	$858993459, %ecx                # imm = 0x33333333
	ja	.LBB44_25
# %bb.23:
	xorl	%eax, %eax
	movl	$3435973837, %ecx               # imm = 0xCCCCCCCD
	.p2align	4, 0x90
.LBB44_24:                              # =>This Inner Loop Header: Depth=1
	movl	%r13d, %r13d
	imulq	%rcx, %r13
	shrq	$34, %r13
	incl	%eax
	imull	$-858993459, %r13d, %r11d       # imm = 0xCCCCCCCD
	cmpl	$858993460, %r11d               # imm = 0x33333334
	jb	.LBB44_24
.LBB44_25:
	cmpl	%ebx, %eax
	setae	%sil
	xorl	%eax, %eax
	testb	%al, %al
	je	.LBB44_26
	jmp	.LBB44_37
.LBB44_33:
	movl	$1, %ecx
	subl	%r11d, %ecx
	imull	$1217359, %ecx, %ebp            # imm = 0x12934F
	shrl	$19, %ebp
	movq	(%r15,%rcx,8), %rcx
	movl	%ecx, %r10d
	shrq	$32, %rcx
	imulq	%r12, %r10
	imulq	%r12, %rcx
	shrq	$32, %r10
	addq	%rcx, %r10
	movl	%eax, %ecx
	subl	%ebp, %ecx
	addb	$27, %cl
                                        # kill: def $cl killed $cl killed $ecx
	shrq	%cl, %r10
	movl	%r10d, %ecx
	imulq	%r13, %rcx
	shrq	$35, %rcx
	addl	%ecx, %ecx
	leal	(%rcx,%rcx,4), %ecx
	subl	%ecx, %r10d
	cmpl	$2097151, %ebx                  # imm = 0x1FFFFF
	ja	.LBB44_9
.LBB44_34:
	movl	%r8d, %eax
	andl	$1, %eax
	sete	%cl
	andb	%cl, %sil
	subl	%eax, %edi
	movb	$1, %al
	jmp	.LBB44_38
.LBB44_35:
	xorl	%eax, %eax
	xorl	%esi, %esi
	movl	%r11d, %ebx
	testb	%al, %al
	jne	.LBB44_37
.LBB44_26:
	testb	%sil, %sil
	jne	.LBB44_37
# %bb.27:
	movl	%edi, %eax
	movl	$3435973837, %r8d               # imm = 0xCCCCCCCD
	imulq	%r8, %rax
	shrq	$35, %rax
	movl	%r9d, %r11d
	imulq	%r8, %r11
	shrq	$35, %r11
	xorl	%ecx, %ecx
	cmpl	%r11d, %eax
	jbe	.LBB44_31
# %bb.28:
	xorl	%ecx, %ecx
	.p2align	4, 0x90
.LBB44_29:                              # =>This Inner Loop Header: Depth=1
	movl	%edx, %r10d
	movl	%r11d, %r9d
	movl	%edx, %edx
	imulq	%r8, %rdx
	shrq	$35, %rdx
	incl	%ecx
	movl	%eax, %eax
	imulq	%r8, %rax
	shrq	$35, %rax
	movl	%r11d, %r11d
	imulq	%r8, %r11
	shrq	$35, %r11
	cmpl	%r11d, %eax
	ja	.LBB44_29
# %bb.30:
	leal	(%rdx,%rdx), %eax
	leal	(%rax,%rax,4), %eax
	subl	%eax, %r10d
.LBB44_31:
	cmpl	%r9d, %edx
	sete	%al
	cmpb	$5, %r10b
	setae	%r10b
	orb	%al, %r10b
	movl	%ebx, %r11d
	jmp	.LBB44_48
.LBB44_37:
	movl	%ebx, %r11d
.LBB44_38:
	movl	%edi, %ebx
	movl	$3435973837, %edi               # imm = 0xCCCCCCCD
	imulq	%rdi, %rbx
	shrq	$35, %rbx
	movl	%r9d, %r14d
	imulq	%rdi, %r14
	shrq	$35, %r14
	xorl	%ecx, %ecx
	cmpl	%r14d, %ebx
	jbe	.LBB44_42
# %bb.39:
	xorl	%ecx, %ecx
	.p2align	4, 0x90
.LBB44_40:                              # =>This Inner Loop Header: Depth=1
	movl	%r9d, %r15d
	movl	%edx, %ebp
	movl	%r14d, %r9d
	leal	(%r9,%r9), %edx
	leal	(%rdx,%rdx,4), %edx
	cmpl	%r15d, %edx
	sete	%dl
	andb	%dl, %sil
	testb	%r10b, %r10b
	sete	%dl
	andb	%dl, %al
	movl	%ebp, %edx
	imulq	%rdi, %rdx
	shrq	$35, %rdx
	leal	(%rdx,%rdx), %r10d
	leal	(%r10,%r10,4), %r10d
	subl	%r10d, %ebp
	incl	%ecx
	movl	%ebx, %ebx
	imulq	%rdi, %rbx
	shrq	$35, %rbx
	movl	%r14d, %r14d
	imulq	%rdi, %r14
	shrq	$35, %r14
	movl	%ebp, %r10d
	cmpl	%r14d, %ebx
	ja	.LBB44_40
# %bb.41:
	movl	%ebp, %r10d
.LBB44_42:
	xorb	$1, %sil
	jne	.LBB44_47
# %bb.43:
	movl	%r9d, %ebx
	imulq	%rdi, %rbx
	shrq	$35, %rbx
	addl	%ebx, %ebx
	leal	(%rbx,%rbx,4), %edi
	movl	%r9d, %ebx
	subl	%edi, %ebx
	jne	.LBB44_47
# %bb.44:
	movl	$3435973837, %edi               # imm = 0xCCCCCCCD
	.p2align	4, 0x90
.LBB44_45:                              # =>This Inner Loop Header: Depth=1
	movl	%edx, %ebx
	testb	%r10b, %r10b
	sete	%dl
	andb	%dl, %al
	movl	%ebx, %edx
	imulq	%rdi, %rdx
	shrq	$35, %rdx
	leal	(%rdx,%rdx), %r10d
	leal	(%r10,%r10,4), %r10d
	subl	%r10d, %ebx
	movl	%r9d, %r9d
	imulq	%rdi, %r9
	shrq	$35, %r9
	incl	%ecx
	imull	$-858993459, %r9d, %ebp         # imm = 0xCCCCCCCD
	rorl	%ebp
	movl	%ebx, %r10d
	cmpl	$429496730, %ebp                # imm = 0x1999999A
	jb	.LBB44_45
# %bb.46:
	movl	%ebx, %r10d
.LBB44_47:
	notb	%al
	cmpb	$5, %r10b
	setne	%bl
	setae	%dil
	movl	%edx, %r10d
	orb	%al, %r10b
	orb	%bl, %r10b
	cmpl	%r9d, %edx
	sete	%al
	orb	%sil, %r8b
	andb	%al, %r8b
	andb	%dil, %r10b
	orb	%r8b, %r10b
.LBB44_48:
	addl	%ecx, %r11d
	movzbl	%r10b, %eax
	addl	%edx, %eax
	shlq	$32, %r11
	orq	%r11, %rax
	popq	%rbx
	popq	%rbp
	popq	%rdi
	popq	%rsi
	popq	%r12
	popq	%r13
	popq	%r14
	popq	%r15
	retq
	.seh_endproc
                                        # -- End function
	.def	"??$__to_chars@D@std@@YA?AU?$pair@PEADW4errc@std@@@0@QEAD0U__floating_decimal_32@0@W4chars_format@0@II@Z";
	.scl	2;
	.type	32;
	.endef
	.section	.text,"xr",discard,"??$__to_chars@D@std@@YA?AU?$pair@PEADW4errc@std@@@0@QEAD0U__floating_decimal_32@0@W4chars_format@0@II@Z"
	.globl	"??$__to_chars@D@std@@YA?AU?$pair@PEADW4errc@std@@@0@QEAD0U__floating_decimal_32@0@W4chars_format@0@II@Z" # -- Begin function ??$__to_chars@D@std@@YA?AU?$pair@PEADW4errc@std@@@0@QEAD0U__floating_decimal_32@0@W4chars_format@0@II@Z
	.p2align	4, 0x90
"??$__to_chars@D@std@@YA?AU?$pair@PEADW4errc@std@@@0@QEAD0U__floating_decimal_32@0@W4chars_format@0@II@Z": # @"??$__to_chars@D@std@@YA?AU?$pair@PEADW4errc@std@@@0@QEAD0U__floating_decimal_32@0@W4chars_format@0@II@Z"
.seh_proc "??$__to_chars@D@std@@YA?AU?$pair@PEADW4errc@std@@@0@QEAD0U__floating_decimal_32@0@W4chars_format@0@II@Z"
# %bb.0:
	pushq	%r15
	.seh_pushreg %r15
	pushq	%r14
	.seh_pushreg %r14
	pushq	%r13
	.seh_pushreg %r13
	pushq	%r12
	.seh_pushreg %r12
	pushq	%rsi
	.seh_pushreg %rsi
	pushq	%rdi
	.seh_pushreg %rdi
	pushq	%rbp
	.seh_pushreg %rbp
	pushq	%rbx
	.seh_pushreg %rbx
	subq	$56, %rsp
	.seh_stackalloc 56
	.seh_endprologue
	movq	%r8, %r10
	movq	%rdx, %rdi
	movq	%rcx, %rsi
	movl	160(%rsp), %ecx
	movq	%r9, %r8
	shrq	$32, %r8
	movl	$9, %edx
	cmpl	$99999999, %r9d                 # imm = 0x5F5E0FF
	ja	.LBB45_8
# %bb.1:
	movl	$8, %edx
	cmpl	$9999999, %r9d                  # imm = 0x98967F
	ja	.LBB45_8
# %bb.2:
	movl	$7, %edx
	cmpl	$999999, %r9d                   # imm = 0xF423F
	ja	.LBB45_8
# %bb.3:
	movl	$6, %edx
	cmpl	$99999, %r9d                    # imm = 0x1869F
	ja	.LBB45_8
# %bb.4:
	movl	$5, %edx
	cmpl	$9999, %r9d                     # imm = 0x270F
	ja	.LBB45_8
# %bb.5:
	movl	$4, %edx
	cmpl	$999, %r9d                      # imm = 0x3E7
	ja	.LBB45_8
# %bb.6:
	movl	$3, %edx
	cmpl	$99, %r9d
	ja	.LBB45_8
# %bb.7:
	cmpl	$10, %r9d
	movl	$1, %edx
	sbbl	$-1, %edx
.LBB45_8:
	leal	(%rdx,%r8), %r13d
	cmpl	$3, %ecx
	je	.LBB45_22
# %bb.9:
	cmpl	$2, %ecx
	je	.LBB45_23
# %bb.10:
	testl	%ecx, %ecx
	jne	.LBB45_13
# %bb.11:
	movl	$-3, %ebx
	movl	$-3, %ebp
	subl	%edx, %ebp
	xorl	%ecx, %ecx
	cmpl	$1, %edx
	sete	%r11b
	cmovel	%ebx, %ebp
	cmpl	%r8d, %ebp
	jg	.LBB45_13
# %bb.12:
	movb	%r11b, %cl
	xorl	$5, %ecx
	cmpl	%r8d, %ecx
	jl	.LBB45_13
.LBB45_23:
	testq	%r9, %r9
	js	.LBB45_26
# %bb.24:
	movl	%r13d, %ecx
	cmpl	$1, %r9d
	jne	.LBB45_29
# %bb.25:
	leaq	"?_Adjustment@?CB@???$__to_chars@D@std@@YA?AU?$pair@PEADW4errc@std@@@1@QEAD0U__floating_decimal_32@1@W4chars_format@1@II@Z@4QBEB"(%rip), %rcx
	movzbl	(%r8,%rcx), %r11d
	movl	%r13d, %ecx
	subl	%r11d, %ecx
	jmp	.LBB45_29
.LBB45_22:
	leal	3(%r13), %ecx
	cmpl	$9, %ecx
	jbe	.LBB45_23
.LBB45_13:
	cmpl	$2, %edx
	movl	%edx, %ecx
	sbbl	$-1, %ecx
	addl	$4, %ecx
	movq	%r10, %r11
	subq	%rdi, %r11
	cmpq	%rcx, %r11
	jl	.LBB45_30
# %bb.14:
	xorl	%r10d, %r10d
	movl	%edx, %ebx
	cmpl	$10000, %r9d                    # imm = 0x2710
	jae	.LBB45_15
# %bb.18:
	cmpl	$100, %r9d
	jae	.LBB45_19
.LBB45_20:
	cmpl	$10, %r9d
	jb	.LBB45_53
.LBB45_21:
	movl	%r9d, %eax
	leaq	(%rax,%rax), %r9
	movl	%r9d, %r9d
	leaq	"??$__DIGIT_TABLE@D@std@@3QBDB"(%rip), %r10
	movzbl	1(%r9,%r10), %r9d
	movb	%r9b, 2(%rdi)
	movzbl	(%r10,%rax,2), %r9d
	movb	%r9b, (%rdi)
	movl	$1, %r9d
	cmpl	$2, %edx
	jae	.LBB45_55
	jmp	.LBB45_56
.LBB45_26:
	testl	%r13d, %r13d
	jle	.LBB45_28
# %bb.27:
	leal	1(%rdx), %ecx
	jmp	.LBB45_29
.LBB45_15:
	movq	%r13, 48(%rsp)                  # 8-byte Spill
	movq	%rbx, 40(%rsp)                  # 8-byte Spill
	leaq	(%rdi,%rbx), %r11
	movl	$3518437209, %r14d              # imm = 0xD1B71759
	leaq	"??$__DIGIT_TABLE@D@std@@3QBDB"(%rip), %r15
	.p2align	4, 0x90
.LBB45_16:                              # =>This Inner Loop Header: Depth=1
	movl	%r9d, %ebp
	movl	%r9d, %r9d
	imulq	%r14, %r9
	shrq	$45, %r9
	imull	$-10000, %r9d, %r12d            # imm = 0xD8F0
	addl	%ebp, %r12d
	imulq	$1374389535, %r12, %r13         # imm = 0x51EB851F
	shrq	$37, %r13
	imull	$100, %r13d, %eax
	subl	%eax, %r12d
	movl	%r10d, %eax
	movq	%r11, %rbx
	subq	%rax, %rbx
	movzwl	(%r15,%r12,2), %eax
	movw	%ax, -1(%rbx)
	movzwl	(%r15,%r13,2), %eax
	movw	%ax, -3(%rbx)
	addl	$4, %r10d
	cmpl	$99999999, %ebp                 # imm = 0x5F5E0FF
	ja	.LBB45_16
# %bb.17:
	movl	%r10d, %r10d
	movq	48(%rsp), %r13                  # 8-byte Reload
	movq	40(%rsp), %rbx                  # 8-byte Reload
	cmpl	$100, %r9d
	jb	.LBB45_20
.LBB45_19:
	movzwl	%r9w, %eax
	shrl	$2, %eax
	imull	$5243, %eax, %eax               # imm = 0x147B
	shrl	$17, %eax
	imull	$100, %eax, %r11d
	subl	%r11d, %r9d
	movzwl	%r9w, %r9d
	addq	%rdi, %rbx
	notq	%r10
	leaq	"??$__DIGIT_TABLE@D@std@@3QBDB"(%rip), %r11
	movzwl	(%r11,%r9,2), %r9d
	movw	%r9w, (%r10,%rbx)
	movl	%eax, %r9d
	cmpl	$10, %r9d
	jae	.LBB45_21
.LBB45_53:
	addb	$48, %r9b
	movb	%r9b, (%rdi)
	movl	$1, %r9d
	cmpl	$2, %edx
	jb	.LBB45_56
.LBB45_55:
	movb	$46, 1(%rdi)
	leal	1(%rdx), %r9d
.LBB45_56:
	leal	1(%r9), %r10d
	movl	%r9d, %eax
	movb	$101, (%rdi,%rax)
	testl	%r13d, %r13d
	jle	.LBB45_57
# %bb.58:
	addl	%r8d, %edx
	decl	%edx
	movb	$43, (%rdi,%r10)
	jmp	.LBB45_59
.LBB45_57:
	movb	$45, (%rdi,%r10)
	movl	$1, %edx
	subl	%r13d, %edx
.LBB45_59:
	addl	$2, %r9d
	movslq	%edx, %rax
	leaq	"??$__DIGIT_TABLE@D@std@@3QBDB"(%rip), %rdx
	movzwl	(%rdx,%rax,2), %eax
	movw	%ax, (%rdi,%r9)
	addq	%rdi, %rcx
	movq	%rcx, (%rsi)
	jmp	.LBB45_60
.LBB45_28:
	movl	$2, %ecx
	subl	%r8d, %ecx
.LBB45_29:
	movq	%r10, %r11
	subq	%rdi, %r11
	movl	%ecx, %r14d
	cmpq	%r14, %r11
	jge	.LBB45_31
.LBB45_30:
	movq	%r10, (%rsi)
	movl	$132, 8(%rsi)
	jmp	.LBB45_61
.LBB45_31:
	movq	%r14, %rcx
	testl	%r8d, %r8d
	jle	.LBB45_35
# %bb.32:
	cmpl	$10, %r8d
	ja	.LBB45_62
# %bb.33:
	rep		bsfl	%r9d, %ecx
	movl	%r9d, %r11d
                                        # kill: def $cl killed $cl killed $ecx
	shrl	%cl, %r11d
	leaq	"?_Max_shifted_mantissa@?DC@???$__to_chars@D@std@@YA?AU?$pair@PEADW4errc@std@@@1@QEAD0U__floating_decimal_32@1@W4chars_format@1@II@Z@4QBIB"(%rip), %rcx
	cmpl	(%rcx,%r8,4), %r11d
	jbe	.LBB45_34
.LBB45_62:
	movl	176(%rsp), %eax
	movl	168(%rsp), %r9d
	orl	$8388608, %r9d                  # imm = 0x800000
	addl	$-150, %eax
	movl	%eax, 32(%rsp)
	movq	%rsi, %rcx
	movq	%rdi, %rdx
	movq	%r10, %r8
	callq	"??$_Large_integer_to_chars@D@std@@YA?AU?$pair@PEADW4errc@std@@@0@QEAD0IH@Z"
	jmp	.LBB45_61
.LBB45_34:
	movl	%edx, %ecx
.LBB45_35:
	addq	%rdi, %rcx
	cmpl	$10000, %r9d                    # imm = 0x2710
	jb	.LBB45_36
# %bb.37:
	movl	$3518437209, %r11d              # imm = 0xD1B71759
	leaq	"??$__DIGIT_TABLE@D@std@@3QBDB"(%rip), %rbx
	.p2align	4, 0x90
.LBB45_38:                              # =>This Inner Loop Header: Depth=1
	movl	%r9d, %r10d
	imulq	%r11, %r10
	shrq	$45, %r10
	imull	$-10000, %r10d, %r15d           # imm = 0xD8F0
	addl	%r9d, %r15d
	imulq	$1374389535, %r15, %r12         # imm = 0x51EB851F
	shrq	$37, %r12
	imull	$100, %r12d, %ebp
	subl	%ebp, %r15d
	movzwl	(%rbx,%r15,2), %ebp
	movw	%bp, -2(%rcx)
	movzwl	(%rbx,%r12,2), %ebp
	movw	%bp, -4(%rcx)
	addq	$-4, %rcx
	cmpl	$99999999, %r9d                 # imm = 0x5F5E0FF
	movl	%r10d, %r9d
	ja	.LBB45_38
# %bb.39:
	cmpl	$100, %r10d
	jb	.LBB45_41
.LBB45_40:
	movzwl	%r10w, %r9d
	shrl	$2, %r9d
	imull	$5243, %r9d, %r9d               # imm = 0x147B
	shrl	$17, %r9d
	imull	$100, %r9d, %r11d
	subl	%r11d, %r10d
	movzwl	%r10w, %r10d
	leaq	"??$__DIGIT_TABLE@D@std@@3QBDB"(%rip), %r11
	movzwl	(%r11,%r10,2), %r10d
	movw	%r10w, -2(%rcx)
	addq	$-2, %rcx
	movl	%r9d, %r10d
.LBB45_41:
	cmpl	$10, %r10d
	jb	.LBB45_43
# %bb.42:
	movl	%r10d, %r9d
	leaq	"??$__DIGIT_TABLE@D@std@@3QBDB"(%rip), %r10
	movzwl	(%r10,%r9,2), %r9d
	movw	%r9w, -2(%rcx)
	testl	%r8d, %r8d
	jg	.LBB45_45
.LBB45_46:
	je	.LBB45_52
# %bb.47:
	testl	%r13d, %r13d
	jle	.LBB45_49
# %bb.48:
	leaq	1(%rdi), %rdx
	movl	%r13d, %ebx
	movq	%rdi, %rcx
	movq	%rbx, %r8
	callq	memmove
	movb	$46, (%rdi,%rbx)
	jmp	.LBB45_52
.LBB45_36:
	movl	%r9d, %r10d
	cmpl	$100, %r10d
	jae	.LBB45_40
	jmp	.LBB45_41
.LBB45_43:
	addb	$48, %r10b
	movb	%r10b, -1(%rcx)
	testl	%r8d, %r8d
	jle	.LBB45_46
.LBB45_45:
	movl	%edx, %ecx
	addq	%rdi, %rcx
	movb	$48, %dl
.LBB45_51:
	callq	memset
.LBB45_52:
	addq	%r14, %rdi
	movq	%rdi, (%rsi)
.LBB45_60:
	movl	$0, 8(%rsi)
.LBB45_61:
	movq	%rsi, %rax
	addq	$56, %rsp
	popq	%rbx
	popq	%rbp
	popq	%rdi
	popq	%rsi
	popq	%r12
	popq	%r13
	popq	%r14
	popq	%r15
	retq
.LBB45_49:
	movw	$11824, (%rdi)                  # imm = 0x2E30
	je	.LBB45_52
# %bb.50:
	negl	%r13d
	leaq	2(%rdi), %rcx
	movb	$48, %dl
	movq	%r13, %r8
	jmp	.LBB45_51
	.seh_endproc
                                        # -- End function
	.def	"??$_Fmt_write@DV?$back_insert_iterator@V?$_Fmt_buffer@D@std@@@std@@N@__p2286@std@@YA?AV?$back_insert_iterator@V?$_Fmt_buffer@D@std@@@1@V21@N@Z";
	.scl	2;
	.type	32;
	.endef
	.section	.text,"xr",discard,"??$_Fmt_write@DV?$back_insert_iterator@V?$_Fmt_buffer@D@std@@@std@@N@__p2286@std@@YA?AV?$back_insert_iterator@V?$_Fmt_buffer@D@std@@@1@V21@N@Z"
	.globl	"??$_Fmt_write@DV?$back_insert_iterator@V?$_Fmt_buffer@D@std@@@std@@N@__p2286@std@@YA?AV?$back_insert_iterator@V?$_Fmt_buffer@D@std@@@1@V21@N@Z" # -- Begin function ??$_Fmt_write@DV?$back_insert_iterator@V?$_Fmt_buffer@D@std@@@std@@N@__p2286@std@@YA?AV?$back_insert_iterator@V?$_Fmt_buffer@D@std@@@1@V21@N@Z
	.p2align	4, 0x90
"??$_Fmt_write@DV?$back_insert_iterator@V?$_Fmt_buffer@D@std@@@std@@N@__p2286@std@@YA?AV?$back_insert_iterator@V?$_Fmt_buffer@D@std@@@1@V21@N@Z": # @"??$_Fmt_write@DV?$back_insert_iterator@V?$_Fmt_buffer@D@std@@@std@@N@__p2286@std@@YA?AV?$back_insert_iterator@V?$_Fmt_buffer@D@std@@@1@V21@N@Z"
.Lfunc_begin22:
.seh_proc "??$_Fmt_write@DV?$back_insert_iterator@V?$_Fmt_buffer@D@std@@@std@@N@__p2286@std@@YA?AV?$back_insert_iterator@V?$_Fmt_buffer@D@std@@@1@V21@N@Z"
	.seh_handler __CxxFrameHandler3, @unwind, @except
# %bb.0:
	pushq	%rbp
	.seh_pushreg %rbp
	pushq	%r15
	.seh_pushreg %r15
	pushq	%r14
	.seh_pushreg %r14
	pushq	%rsi
	.seh_pushreg %rsi
	pushq	%rdi
	.seh_pushreg %rdi
	pushq	%rbx
	.seh_pushreg %rbx
	subq	$120, %rsp
	.seh_stackalloc 120
	leaq	112(%rsp), %rbp
	.seh_setframe %rbp, 112
	movaps	%xmm6, -16(%rbp)                # 16-byte Spill
	.seh_savexmm %xmm6, 96
	.seh_endprologue
	movq	$-2, -24(%rbp)
	movaps	%xmm2, %xmm6
	movq	%rdx, %rdi
	movq	%rcx, %rsi
	movsd	%xmm2, -48(%rbp)
.Ltmp80:
	leaq	-48(%rbp), %rbx
	movq	%rbx, %rcx
	callq	_dtest
.Ltmp81:
# %bb.1:
	cmpw	$2, %ax
	jne	.LBB46_6
# %bb.2:
.Ltmp82:
	movaps	%xmm6, %xmm0
	callq	_dsign
.Ltmp83:
# %bb.3:
	leaq	-48(%rbp), %rcx
	movq	%rcx, %r14
	testl	%eax, %eax
	je	.LBB46_5
# %bb.4:
	leaq	-47(%rbp), %r14
	movb	$45, -48(%rbp)
.LBB46_5:
	movb	$110, 2(%r14)
	movw	$24942, (%r14)                  # imm = 0x616E
	addq	$3, %r14
	cmpq	%rcx, %r14
	jne	.LBB46_7
.LBB46_6:
	leaq	-24(%rbp), %r8
	movl	$0, 40(%rsp)
	movl	$0, 32(%rsp)
	leaq	-64(%rbp), %rcx
	leaq	-48(%rbp), %rdx
	movaps	%xmm6, %xmm3
	callq	"??$_Floating_to_chars@$0A@N@std@@YA?AUto_chars_result@0@PEADQEADNW4chars_format@0@H@Z"
	movq	-64(%rbp), %r14
	jmp	.LBB46_7
	.p2align	4, 0x90
.LBB46_10:                              #   in Loop: Header=BB46_7 Depth=1
	movq	8(%rdi), %rcx
	movq	%rdx, 16(%rdi)
	movb	%r15b, (%rcx,%rax)
	incq	%rbx
.LBB46_7:                               # =>This Inner Loop Header: Depth=1
	cmpq	%r14, %rbx
	je	.LBB46_11
# %bb.8:                                #   in Loop: Header=BB46_7 Depth=1
	movzbl	(%rbx), %r15d
	movq	16(%rdi), %rax
	leaq	1(%rax), %rdx
	cmpq	%rdx, 24(%rdi)
	jae	.LBB46_10
# %bb.9:                                #   in Loop: Header=BB46_7 Depth=1
	movq	(%rdi), %rax
	movq	%rdi, %rcx
	callq	*(%rax)
	movq	16(%rdi), %rax
	leaq	1(%rax), %rdx
	jmp	.LBB46_10
.LBB46_11:
	movq	%rdi, (%rsi)
	movq	%rsi, %rax
	movaps	-16(%rbp), %xmm6                # 16-byte Reload
	addq	$120, %rsp
	popq	%rbx
	popq	%rdi
	popq	%rsi
	popq	%r14
	popq	%r15
	popq	%rbp
	retq
	.seh_handlerdata
	.long	("$cppxdata$??$_Fmt_write@DV?$back_insert_iterator@V?$_Fmt_buffer@D@std@@@std@@N@__p2286@std@@YA?AV?$back_insert_iterator@V?$_Fmt_buffer@D@std@@@1@V21@N@Z")@IMGREL
	.section	.text,"xr",discard,"??$_Fmt_write@DV?$back_insert_iterator@V?$_Fmt_buffer@D@std@@@std@@N@__p2286@std@@YA?AV?$back_insert_iterator@V?$_Fmt_buffer@D@std@@@1@V21@N@Z"
	.seh_endproc
	.def	"?dtor$12@?0???$_Fmt_write@DV?$back_insert_iterator@V?$_Fmt_buffer@D@std@@@std@@N@__p2286@std@@YA?AV?$back_insert_iterator@V?$_Fmt_buffer@D@std@@@1@V21@N@Z@4HA";
	.scl	3;
	.type	32;
	.endef
	.p2align	4, 0x90
"?dtor$12@?0???$_Fmt_write@DV?$back_insert_iterator@V?$_Fmt_buffer@D@std@@@std@@N@__p2286@std@@YA?AV?$back_insert_iterator@V?$_Fmt_buffer@D@std@@@1@V21@N@Z@4HA":
.seh_proc "?dtor$12@?0???$_Fmt_write@DV?$back_insert_iterator@V?$_Fmt_buffer@D@std@@@std@@N@__p2286@std@@YA?AV?$back_insert_iterator@V?$_Fmt_buffer@D@std@@@1@V21@N@Z@4HA"
.LBB46_12:
	movq	%rdx, 16(%rsp)
	pushq	%rbp
	.seh_pushreg %rbp
	pushq	%r15
	.seh_pushreg %r15
	pushq	%r14
	.seh_pushreg %r14
	pushq	%rsi
	.seh_pushreg %rsi
	pushq	%rdi
	.seh_pushreg %rdi
	pushq	%rbx
	.seh_pushreg %rbx
	subq	$72, %rsp
	.seh_stackalloc 72
	leaq	112(%rdx), %rbp
	movaps	%xmm6, 48(%rsp)                 # 16-byte Spill
	.seh_savexmm %xmm6, 48
	.seh_endprologue
	callq	__std_terminate
	int3
	.seh_handlerdata
	.section	.text,"xr",discard,"??$_Fmt_write@DV?$back_insert_iterator@V?$_Fmt_buffer@D@std@@@std@@N@__p2286@std@@YA?AV?$back_insert_iterator@V?$_Fmt_buffer@D@std@@@1@V21@N@Z"
	.seh_endproc
	.def	"?dtor$13@?0???$_Fmt_write@DV?$back_insert_iterator@V?$_Fmt_buffer@D@std@@@std@@N@__p2286@std@@YA?AV?$back_insert_iterator@V?$_Fmt_buffer@D@std@@@1@V21@N@Z@4HA";
	.scl	3;
	.type	32;
	.endef
	.p2align	4, 0x90
"?dtor$13@?0???$_Fmt_write@DV?$back_insert_iterator@V?$_Fmt_buffer@D@std@@@std@@N@__p2286@std@@YA?AV?$back_insert_iterator@V?$_Fmt_buffer@D@std@@@1@V21@N@Z@4HA":
.seh_proc "?dtor$13@?0???$_Fmt_write@DV?$back_insert_iterator@V?$_Fmt_buffer@D@std@@@std@@N@__p2286@std@@YA?AV?$back_insert_iterator@V?$_Fmt_buffer@D@std@@@1@V21@N@Z@4HA"
.LBB46_13:
	movq	%rdx, 16(%rsp)
	pushq	%rbp
	.seh_pushreg %rbp
	pushq	%r15
	.seh_pushreg %r15
	pushq	%r14
	.seh_pushreg %r14
	pushq	%rsi
	.seh_pushreg %rsi
	pushq	%rdi
	.seh_pushreg %rdi
	pushq	%rbx
	.seh_pushreg %rbx
	subq	$72, %rsp
	.seh_stackalloc 72
	leaq	112(%rdx), %rbp
	movaps	%xmm6, 48(%rsp)                 # 16-byte Spill
	.seh_savexmm %xmm6, 48
	.seh_endprologue
	callq	__std_terminate
	int3
.Lfunc_end22:
	.seh_handlerdata
	.section	.text,"xr",discard,"??$_Fmt_write@DV?$back_insert_iterator@V?$_Fmt_buffer@D@std@@@std@@N@__p2286@std@@YA?AV?$back_insert_iterator@V?$_Fmt_buffer@D@std@@@1@V21@N@Z"
	.seh_endproc
	.section	.xdata,"dr",associative,"??$_Fmt_write@DV?$back_insert_iterator@V?$_Fmt_buffer@D@std@@@std@@N@__p2286@std@@YA?AV?$back_insert_iterator@V?$_Fmt_buffer@D@std@@@1@V21@N@Z"
	.p2align	2, 0x0
"$cppxdata$??$_Fmt_write@DV?$back_insert_iterator@V?$_Fmt_buffer@D@std@@@std@@N@__p2286@std@@YA?AV?$back_insert_iterator@V?$_Fmt_buffer@D@std@@@1@V21@N@Z":
	.long	429065506                       # MagicNumber
	.long	2                               # MaxState
	.long	("$stateUnwindMap$??$_Fmt_write@DV?$back_insert_iterator@V?$_Fmt_buffer@D@std@@@std@@N@__p2286@std@@YA?AV?$back_insert_iterator@V?$_Fmt_buffer@D@std@@@1@V21@N@Z")@IMGREL # UnwindMap
	.long	0                               # NumTryBlocks
	.long	0                               # TryBlockMap
	.long	4                               # IPMapEntries
	.long	("$ip2state$??$_Fmt_write@DV?$back_insert_iterator@V?$_Fmt_buffer@D@std@@@std@@N@__p2286@std@@YA?AV?$back_insert_iterator@V?$_Fmt_buffer@D@std@@@1@V21@N@Z")@IMGREL # IPToStateXData
	.long	88                              # UnwindHelp
	.long	0                               # ESTypeList
	.long	1                               # EHFlags
"$stateUnwindMap$??$_Fmt_write@DV?$back_insert_iterator@V?$_Fmt_buffer@D@std@@@std@@N@__p2286@std@@YA?AV?$back_insert_iterator@V?$_Fmt_buffer@D@std@@@1@V21@N@Z":
	.long	-1                              # ToState
	.long	"?dtor$12@?0???$_Fmt_write@DV?$back_insert_iterator@V?$_Fmt_buffer@D@std@@@std@@N@__p2286@std@@YA?AV?$back_insert_iterator@V?$_Fmt_buffer@D@std@@@1@V21@N@Z@4HA"@IMGREL # Action
	.long	-1                              # ToState
	.long	"?dtor$13@?0???$_Fmt_write@DV?$back_insert_iterator@V?$_Fmt_buffer@D@std@@@std@@N@__p2286@std@@YA?AV?$back_insert_iterator@V?$_Fmt_buffer@D@std@@@1@V21@N@Z@4HA"@IMGREL # Action
"$ip2state$??$_Fmt_write@DV?$back_insert_iterator@V?$_Fmt_buffer@D@std@@@std@@N@__p2286@std@@YA?AV?$back_insert_iterator@V?$_Fmt_buffer@D@std@@@1@V21@N@Z":
	.long	.Lfunc_begin22@IMGREL           # IP
	.long	-1                              # ToState
	.long	.Ltmp80@IMGREL+1                # IP
	.long	0                               # ToState
	.long	.Ltmp82@IMGREL+1                # IP
	.long	1                               # ToState
	.long	.Ltmp83@IMGREL+1                # IP
	.long	-1                              # ToState
	.section	.text,"xr",discard,"??$_Fmt_write@DV?$back_insert_iterator@V?$_Fmt_buffer@D@std@@@std@@N@__p2286@std@@YA?AV?$back_insert_iterator@V?$_Fmt_buffer@D@std@@@1@V21@N@Z"
                                        # -- End function
	.def	"??$_Floating_to_chars@$0A@N@std@@YA?AUto_chars_result@0@PEADQEADNW4chars_format@0@H@Z";
	.scl	2;
	.type	32;
	.endef
	.section	.text,"xr",discard,"??$_Floating_to_chars@$0A@N@std@@YA?AUto_chars_result@0@PEADQEADNW4chars_format@0@H@Z"
	.globl	"??$_Floating_to_chars@$0A@N@std@@YA?AUto_chars_result@0@PEADQEADNW4chars_format@0@H@Z" # -- Begin function ??$_Floating_to_chars@$0A@N@std@@YA?AUto_chars_result@0@PEADQEADNW4chars_format@0@H@Z
	.p2align	4, 0x90
"??$_Floating_to_chars@$0A@N@std@@YA?AUto_chars_result@0@PEADQEADNW4chars_format@0@H@Z": # @"??$_Floating_to_chars@$0A@N@std@@YA?AUto_chars_result@0@PEADQEADNW4chars_format@0@H@Z"
.Lfunc_begin23:
.seh_proc "??$_Floating_to_chars@$0A@N@std@@YA?AUto_chars_result@0@PEADQEADNW4chars_format@0@H@Z"
	.seh_handler __CxxFrameHandler3, @unwind, @except
# %bb.0:
	pushq	%rbp
	.seh_pushreg %rbp
	pushq	%r14
	.seh_pushreg %r14
	pushq	%rsi
	.seh_pushreg %rsi
	pushq	%rdi
	.seh_pushreg %rdi
	pushq	%rbx
	.seh_pushreg %rbx
	subq	$112, %rsp
	.seh_stackalloc 112
	leaq	112(%rsp), %rbp
	.seh_setframe %rbp, 112
	movdqa	%xmm6, -16(%rbp)                # 16-byte Spill
	.seh_savexmm %xmm6, 96
	.seh_endprologue
	movq	$-2, -24(%rbp)
	movq	%r8, %rdi
	movq	%rdx, %rbx
	movq	%rcx, %rsi
	movq	%xmm3, %rax
	testq	%rax, %rax
	js	.LBB47_2
# %bb.1:
	movdqa	%xmm3, %xmm6
	movq	%rax, %rcx
	jmp	.LBB47_5
.LBB47_2:
	cmpq	%rdi, %rbx
	je	.LBB47_3
# %bb.4:
	movb	$45, (%rbx)
	incq	%rbx
	movabsq	$9223372036854775807, %rcx      # imm = 0x7FFFFFFFFFFFFFFF
	andq	%rax, %rcx
	movq	%rcx, %xmm6
.LBB47_5:
	movq	%rcx, %rdx
	notq	%rdx
	movabsq	$9218868437227405312, %r8       # imm = 0x7FF0000000000000
	testq	%r8, %rdx
	jne	.LBB47_15
# %bb.6:
	movabsq	$4503599627370495, %rdx         # imm = 0xFFFFFFFFFFFFF
	andq	%rcx, %rdx
	je	.LBB47_7
# %bb.8:
	testq	%rax, %rax
	jns	.LBB47_11
# %bb.9:
	movabsq	$2251799813685248, %rax         # imm = 0x8000000000000
	cmpq	%rax, %rdx
	jne	.LBB47_11
# %bb.10:
	movl	$8, %r14d
	leaq	"??_C@_08OFCDMILK@nan?$CIind?$CJ?$AA@"(%rip), %rdx
	movq	%rdi, %rax
	subq	%rbx, %rax
	cmpq	%r14, %rax
	jl	.LBB47_13
	jmp	.LBB47_14
.LBB47_15:
	movq	%xmm6, %r8
	testq	%r8, %r8
	je	.LBB47_16
# %bb.18:
	movabsq	$4503599627370495, %rdx         # imm = 0xFFFFFFFFFFFFF
	andq	%r8, %rdx
	shrq	$52, %r8
	leal	-1076(%r8), %eax
	cmpl	$-53, %eax
	jb	.LBB47_23
# %bb.19:
	movl	$1075, %ecx                     # imm = 0x433
	subl	%r8d, %ecx
	movq	$-1, %r9
	shlq	%cl, %r9
	movabsq	$4503599627370496, %rax         # imm = 0x10000000000000
	orq	%rdx, %rax
	notq	%r9
	testq	%r9, %rax
	je	.LBB47_20
.LBB47_23:
.Ltmp84:
	leaq	-40(%rbp), %rcx
                                        # kill: def $r8d killed $r8d killed $r8
	callq	"?__d2d@std@@YA?AU__floating_decimal_64@1@_KI@Z"
.Ltmp85:
# %bb.24:
	movq	-40(%rbp), %rcx
	movq	-32(%rbp), %xmm0                # xmm0 = mem[0],zero
.LBB47_25:
	movq	%rcx, -40(%rbp)
	movq	%xmm0, -32(%rbp)
.Ltmp86:
	movq	%xmm6, 40(%rsp)
	movl	$0, 32(%rsp)
	leaq	-56(%rbp), %rcx
	leaq	-40(%rbp), %r9
	movq	%rbx, %rdx
	movq	%rdi, %r8
	callq	"??$__to_chars@D@std@@YA?AU?$pair@PEADW4errc@std@@@0@QEAD0U__floating_decimal_64@0@W4chars_format@0@N@Z"
.Ltmp87:
# %bb.26:
	movq	-56(%rbp), %rdi
	movl	-48(%rbp), %eax
	jmp	.LBB47_29
.LBB47_7:
	movl	$3, %r14d
	leaq	"??_C@_03OJHLLCGB@inf?$AA@"(%rip), %rdx
	movq	%rdi, %rax
	subq	%rbx, %rax
	cmpq	%r14, %rax
	jge	.LBB47_14
.LBB47_13:
	movq	%rdi, (%rsi)
	movl	$132, 8(%rsi)
	jmp	.LBB47_30
.LBB47_16:
	cmpq	%rdi, %rbx
	je	.LBB47_17
# %bb.28:
	movb	$48, (%rbx)
	incq	%rbx
	xorl	%eax, %eax
	movq	%rbx, %rdi
	jmp	.LBB47_29
.LBB47_3:
	movq	%rbx, (%rsi)
	movl	$132, 8(%rsi)
	jmp	.LBB47_30
.LBB47_11:
	btq	$51, %rcx
	leaq	"??_C@_09IPFBKMDL@nan?$CIsnan?$CJ?$AA@"(%rip), %rax
	leaq	"??_C@_03LHCJEHON@nan?$AA@"(%rip), %rdx
	cmovaeq	%rax, %rdx
	movl	$9, %eax
	movl	$3, %r14d
	cmovaeq	%rax, %r14
	movq	%rdi, %rax
	subq	%rbx, %rax
	cmpq	%r14, %rax
	jl	.LBB47_13
.LBB47_14:
	movq	%rbx, %rcx
	movq	%r14, %r8
	callq	memcpy
	addq	%r14, %rbx
	movq	%rbx, (%rsi)
	movl	$0, 8(%rsi)
	jmp	.LBB47_30
.LBB47_17:
	movl	$132, %eax
.LBB47_29:
	movq	%rdi, (%rsi)
	movl	%eax, 8(%rsi)
.LBB47_30:
	movq	%rsi, %rax
	movaps	-16(%rbp), %xmm6                # 16-byte Reload
	addq	$112, %rsp
	popq	%rbx
	popq	%rdi
	popq	%rsi
	popq	%r14
	popq	%rbp
	retq
.LBB47_20:
                                        # kill: def $cl killed $cl killed $rcx
	shrq	%cl, %rax
	movl	$-1, %r8d
	movabsq	$-3689348814741910323, %r9      # imm = 0xCCCCCCCCCCCCCCCD
	.p2align	4, 0x90
.LBB47_21:                              # =>This Inner Loop Header: Depth=1
	movq	%rax, %rcx
	mulq	%r9
	movq	%rdx, %rax
	shrq	$3, %rax
	leal	(%rax,%rax), %edx
	leal	(%rdx,%rdx,4), %edx
	incl	%r8d
	cmpl	%ecx, %edx
	je	.LBB47_21
# %bb.22:
	movd	%r8d, %xmm0
	jmp	.LBB47_25
	.seh_handlerdata
	.long	("$cppxdata$??$_Floating_to_chars@$0A@N@std@@YA?AUto_chars_result@0@PEADQEADNW4chars_format@0@H@Z")@IMGREL
	.section	.text,"xr",discard,"??$_Floating_to_chars@$0A@N@std@@YA?AUto_chars_result@0@PEADQEADNW4chars_format@0@H@Z"
	.seh_endproc
	.def	"?dtor$27@?0???$_Floating_to_chars@$0A@N@std@@YA?AUto_chars_result@0@PEADQEADNW4chars_format@0@H@Z@4HA";
	.scl	3;
	.type	32;
	.endef
	.p2align	4, 0x90
"?dtor$27@?0???$_Floating_to_chars@$0A@N@std@@YA?AUto_chars_result@0@PEADQEADNW4chars_format@0@H@Z@4HA":
.seh_proc "?dtor$27@?0???$_Floating_to_chars@$0A@N@std@@YA?AUto_chars_result@0@PEADQEADNW4chars_format@0@H@Z@4HA"
.LBB47_27:
	movq	%rdx, 16(%rsp)
	pushq	%rbp
	.seh_pushreg %rbp
	pushq	%r14
	.seh_pushreg %r14
	pushq	%rsi
	.seh_pushreg %rsi
	pushq	%rdi
	.seh_pushreg %rdi
	pushq	%rbx
	.seh_pushreg %rbx
	subq	$64, %rsp
	.seh_stackalloc 64
	leaq	112(%rdx), %rbp
	movdqa	%xmm6, 48(%rsp)                 # 16-byte Spill
	.seh_savexmm %xmm6, 48
	.seh_endprologue
	callq	__std_terminate
	int3
.Lfunc_end23:
	.seh_handlerdata
	.section	.text,"xr",discard,"??$_Floating_to_chars@$0A@N@std@@YA?AUto_chars_result@0@PEADQEADNW4chars_format@0@H@Z"
	.seh_endproc
	.section	.xdata,"dr",associative,"??$_Floating_to_chars@$0A@N@std@@YA?AUto_chars_result@0@PEADQEADNW4chars_format@0@H@Z"
	.p2align	2, 0x0
"$cppxdata$??$_Floating_to_chars@$0A@N@std@@YA?AUto_chars_result@0@PEADQEADNW4chars_format@0@H@Z":
	.long	429065506                       # MagicNumber
	.long	1                               # MaxState
	.long	("$stateUnwindMap$??$_Floating_to_chars@$0A@N@std@@YA?AUto_chars_result@0@PEADQEADNW4chars_format@0@H@Z")@IMGREL # UnwindMap
	.long	0                               # NumTryBlocks
	.long	0                               # TryBlockMap
	.long	3                               # IPMapEntries
	.long	("$ip2state$??$_Floating_to_chars@$0A@N@std@@YA?AUto_chars_result@0@PEADQEADNW4chars_format@0@H@Z")@IMGREL # IPToStateXData
	.long	88                              # UnwindHelp
	.long	0                               # ESTypeList
	.long	1                               # EHFlags
"$stateUnwindMap$??$_Floating_to_chars@$0A@N@std@@YA?AUto_chars_result@0@PEADQEADNW4chars_format@0@H@Z":
	.long	-1                              # ToState
	.long	"?dtor$27@?0???$_Floating_to_chars@$0A@N@std@@YA?AUto_chars_result@0@PEADQEADNW4chars_format@0@H@Z@4HA"@IMGREL # Action
"$ip2state$??$_Floating_to_chars@$0A@N@std@@YA?AUto_chars_result@0@PEADQEADNW4chars_format@0@H@Z":
	.long	.Lfunc_begin23@IMGREL           # IP
	.long	-1                              # ToState
	.long	.Ltmp84@IMGREL+1                # IP
	.long	0                               # ToState
	.long	.Ltmp87@IMGREL+1                # IP
	.long	-1                              # ToState
	.section	.text,"xr",discard,"??$_Floating_to_chars@$0A@N@std@@YA?AUto_chars_result@0@PEADQEADNW4chars_format@0@H@Z"
                                        # -- End function
	.def	"??$__d2s_buffered_n@D@std@@YA?AU?$pair@PEADW4errc@std@@@0@QEAD0NW4chars_format@0@@Z";
	.scl	2;
	.type	32;
	.endef
	.section	.text,"xr",discard,"??$__d2s_buffered_n@D@std@@YA?AU?$pair@PEADW4errc@std@@@0@QEAD0NW4chars_format@0@@Z"
	.globl	"??$__d2s_buffered_n@D@std@@YA?AU?$pair@PEADW4errc@std@@@0@QEAD0NW4chars_format@0@@Z" # -- Begin function ??$__d2s_buffered_n@D@std@@YA?AU?$pair@PEADW4errc@std@@@0@QEAD0NW4chars_format@0@@Z
	.p2align	4, 0x90
"??$__d2s_buffered_n@D@std@@YA?AU?$pair@PEADW4errc@std@@@0@QEAD0NW4chars_format@0@@Z": # @"??$__d2s_buffered_n@D@std@@YA?AU?$pair@PEADW4errc@std@@@0@QEAD0NW4chars_format@0@@Z"
.seh_proc "??$__d2s_buffered_n@D@std@@YA?AU?$pair@PEADW4errc@std@@@0@QEAD0NW4chars_format@0@@Z"
# %bb.0:
	pushq	%rsi
	.seh_pushreg %rsi
	pushq	%rdi
	.seh_pushreg %rdi
	pushq	%rbp
	.seh_pushreg %rbp
	pushq	%rbx
	.seh_pushreg %rbx
	subq	$104, %rsp
	.seh_stackalloc 104
	movdqa	%xmm6, 80(%rsp)                 # 16-byte Spill
	.seh_savexmm %xmm6, 80
	.seh_endprologue
	movq	%r8, %rbx
	movq	%rdx, %rdi
	movq	%rcx, %rsi
	movl	176(%rsp), %ebp
	movq	%xmm3, %rax
	testq	%rax, %rax
	je	.LBB48_1
# %bb.8:
	movdqa	%xmm3, %xmm6
	movq	%rax, %r8
	shrq	$52, %r8
	cmpl	$2, %ebp
	jne	.LBB48_11
# %bb.9:
	cmpl	$1076, %r8d                     # imm = 0x434
	jb	.LBB48_11
# %bb.10:
	movl	$0, 32(%rsp)
	movq	%rsi, %rcx
	movq	%rdi, %rdx
	movq	%rbx, %r8
	movdqa	%xmm6, %xmm3
	callq	"??$__d2fixed_buffered_n@D@std@@YA?AU?$pair@PEADW4errc@std@@@0@PEADQEADNI@Z"
	jmp	.LBB48_17
.LBB48_1:
	cmpl	$1, %ebp
	jne	.LBB48_5
# %bb.2:
	movq	%rbx, %rax
	subq	%rdi, %rax
	cmpq	$4, %rax
	jle	.LBB48_3
# %bb.4:
	movb	$48, 4(%rdi)
	movl	$808150320, (%rdi)              # imm = 0x302B6530
	addq	$5, %rdi
	jmp	.LBB48_7
.LBB48_11:
	movabsq	$4503599627370495, %rdx         # imm = 0xFFFFFFFFFFFFF
	andq	%rdx, %rax
	leal	-1076(%r8), %ecx
	cmpl	$-53, %ecx
	jb	.LBB48_18
# %bb.12:
	movl	$1075, %ecx                     # imm = 0x433
	subl	%r8d, %ecx
	movq	$-1, %r9
	shlq	%cl, %r9
	incq	%rdx
	orq	%rax, %rdx
	notq	%r9
	testq	%r9, %rdx
	je	.LBB48_13
.LBB48_18:
	leaq	64(%rsp), %rcx
	movq	%rax, %rdx
                                        # kill: def $r8d killed $r8d killed $r8
	callq	"?__d2d@std@@YA?AU__floating_decimal_64@1@_KI@Z"
	movq	64(%rsp), %rcx
	movq	72(%rsp), %xmm0                 # xmm0 = mem[0],zero
